(dp1
S'codesubtype'
p2
(dp3
S'type'
p4
S'string'
p5
sS'sortable'
p6
I4
sS'sql'
p7
S'CHAR(25)'
p8
ssS'codedscr'
p9
(dp10
g4
g5
sg6
I6
sg7
S'CHAR(255)'
p11
ssS'codetype'
p12
(dp13
g4
g5
sg6
I3
sg7
S'CHAR(25)'
p14
ssS'codeval'
p15
(dp16
g4
g5
sg6
I5
sg7
S'CHAR(25)'
p17
ssS'id'
p18
(dp19
g4
g18
sg6
I1
sg7
S'INTEGER PRIMARY KEY AUTOINCREMENT'
p20
ssS'dispseq'
p21
(dp22
g4
S'integer'
p23
sg6
I2
sg7
S'INTEGER'
p24
ss.