(dp1
S'output'
p2
S"<type 'exceptions.NameError'> name 'patient' is not defined"
p3
sS'layer'
p4
S'/home/brencam/web2py/applications/uodb/views/ptcrud/edit_patient.html'
p5
sS'code'
p6
S'response.write(\'<!DOCTYPE html>\\n<html lang="\', escape=False)\nresponse.write(T.accepted_language or \'en\')\nresponse.write(\'" class="no-js"><!-- no-js need it for modernzr -->\\n  <head>\\n    \\n    <meta charset="utf-8" />        \\n    <!-- www.phpied.com/conditional-comments-block-downloads/ -->\\n    <!--[if IE]><![endif]-->    \\n    <!-- Always force latest IE rendering engine \\n     (even in intranet) & Chrome Frame \\n     Remove this if you use the .htaccess -->\\n    <meta http-equiv="X-UA-Compatible" content="IE=edge,chrome=1">\\n    \\n    <title>\', escape=False)\nresponse.write(response.title or request.application)\nresponse.write(\'</title>\\n    \\n    <!-- http://dev.w3.org/html5/markup/meta.name.html -->\\n    <meta name="application-name" content="\', escape=False)\nresponse.write(request.application)\nresponse.write(\'" /> \\n    \\n    <!-- Speaking of Google, don\\\'t forget to set your site up: \\n     http://google.com/webmasters -->\\n    <meta name="google-site-verification" content="" />\\n    \\n    <!--  Mobile Viewport Fix\\n      j.mp/mobileviewport & davidbcalhoun.com/2010/viewport-metatag \\n      device-width: Occupy full width of the screen in its current orientation\\n      initial-scale = 1.0 retains dimensions instead of zooming out if page height > device height\\n      maximum-scale = 1.0 retains dimensions instead of zooming in if page width < device width\\n      -->\\n    <meta name="viewport" content="width=device-width, initial-scale=1.0, maximum-scale=1.0">\\n    \\n    <!-- Place favicon.ico and apple-touch-icon.png in the root of your domain and delete these references -->\\n    <link rel="shortcut icon" href="\', escape=False)\nresponse.write(URL(\'static\',\'favicon.ico\'))\nresponse.write(\'" type="image/x-icon">\\n    <link rel="apple-touch-icon" href="\', escape=False)\nresponse.write(URL(\'static\',\'favicon.png\'))\nresponse.write(\'">\\n\\n    <!-- For the less-enabled mobile browsers like Opera Mini -->\\n    <link rel="stylesheet" media="handheld" href="\', escape=False)\nresponse.write(URL(\'static\',\'css/handheld.css\'))\nresponse.write(\'">\\n    \\n    <!-- All JavaScript at the bottom, except for Modernizr which enables HTML5 elements & feature detects -->\\n    <script src="\', escape=False)\nresponse.write(URL(\'static\',\'js/modernizr-1.7.min.js\'))\nresponse.write(\'"></script>\\n    \\n    \', escape=False)\n#------  require CSS and JS files for this page (read info in base.css) ------\nresponse.write(\'\\n    \', escape=False)\nresponse.files.append(URL(\'static\',\'css/base.css\'))\nresponse.write(\'\\n    \', escape=False)\nresponse.files.append(URL(\'static\',\'css/superfish.css\'))\nresponse.write(\'\\n    \', escape=False)\nresponse.files.append(URL(\'static\',\'js/superfish.js\'))\nresponse.write(\'\\n    \', escape=False)\n#------ include web2py specific js code (jquery, calendar, form stuff) ------\nresponse.write(\'\\n    \', escape=False)\nresponse.write(\'<script type="text/javascript"><!--\\n    // These variables are used by the web2py_ajax_init function in web2py_ajax.js (which is loaded below).\\n    var w2p_ajax_confirm_message = "\', escape=False)\nresponse.write(T(\'Are you sure you want to delete this object?\'))\nresponse.write(\'";\\n    var w2p_ajax_date_format = "\', escape=False)\nresponse.write(T(\'%Y-%m-%d\'))\nresponse.write(\'";\\n    var w2p_ajax_datetime_format = "\', escape=False)\nresponse.write(T(\'%Y-%m-%d %H:%M:%S\'))\nresponse.write(\'";\\n    //--></script>\\n\', escape=False)\nresponse.files.insert(0,URL(\'static\',\'js/jquery.js\'))\nresponse.files.insert(1,URL(\'static\',\'css/calendar.css\'))\nresponse.files.insert(2,URL(\'static\',\'js/calendar.js\'))\nresponse.files.insert(3,URL(\'static\',\'js/web2py.js\'))\nresponse.include_meta()\nresponse.include_files()\nresponse.write(\'\\n\', escape=False)\nresponse.write(\'\\n\\n    \', escape=False)\n#using sidebars need to know what sidebar you want to use\n#prior of using it, because of static width size of content, you can use\n#left_sidebar, right_sidebar, both or none (False left and right)\nleft_sidebar_enabled = globals().get(\'left_sidebar_enabled\',False)\nright_sidebar_enabled = globals().get(\'right_sidebar_enabled\',False)\nif left_sidebar_enabled and right_sidebar_enabled: width_content=\'63%\'\nelif left_sidebar_enabled != right_sidebar_enabled: width_content=\'740px\'\nelse: width_content=\'100%\'\nif left_sidebar_enabled: left_sidebar_style = \'style="display: block;"\'\nelse: left_sidebar_style = \'style="display: none;"\'\nif right_sidebar_enabled: right_sidebar_style = \'style="display: block;"\'\nelse: right_sidebar_style = \'style="display: none;"\'\nstyle_content = \'style="width: %s"\' % width_content\nresponse.write(\'\\n  </head>\\n  \\n  <!-- paulirish.com/2008/conditional-stylesheets-vs-css-hacks-answer-neither/ -->  \\n  <!--[if lt IE 7 ]> <body class="ie6"> <![endif]-->\\n  <!--[if IE 7 ]>    <body class="ie7"> <![endif]-->\\n  <!--[if IE 8 ]>    <body class="ie8"> <![endif]-->\\n  <!--[if IE 9 ]>    <body class="ie9"> <![endif]-->\\n  <!--[if (gt IE 9)|!(IE)]><!--> <body> <!--<![endif]-->\\n    \\n    <div class="flash">\', escape=False)\nresponse.write(response.flash or \'\')\nresponse.write(\'</div> <!-- notification div -->\\n    \\n    <div id="container">                        \\n      \\n      <div id="wrapper">        \\n    \\n    <div id="header"> <!-- header and login nav -->\\n      \', escape=False)\nresponse.write(\' <!-- this is default header -->\\n      \', escape=False)\ntry:\n    response.write(auth.navbar(action=URL(\'default\',\'user\')))\nexcept:pass\nresponse.write(\'               \\n      <h1><span id="appname">\', escape=False)\nresponse.write(request.application.capitalize())\nresponse.write(\'</span>App</h1>\\n      <div style="clear: both;"></div><!-- Clear the divs -->\\n      \', escape=False)\nresponse.write(\'                                     \\n    </div><!-- header  -->\\n    \\n    <div id="statusbar"><!-- statusbar is menu zone -->\\n      \', escape=False)\nresponse.write(\' <!-- this is default statusbar -->\\n      \', escape=False)\n#------ superfish menu ------\nresponse.write(\'\\n      \', escape=False)\nresponse.write(MENU(response.menu,_class=\'sf-menu\'))\nresponse.write(\'\\n      <script type="text/javascript">\\n        jQuery(document).ready(function(){\\n        jQuery(\\\'ul.sf-menu\\\').superfish();});\\n      </script>\\n      <div style="clear: both;"></div><!-- Clear the divs -->   \\n      \', escape=False)\nresponse.write(\'               \\n    </div><!-- statusbar -->\\n    \\n    <div id="page"> <!-- Here my central body -->     \\n\\n      \', escape=False)\nif left_sidebar_enabled:\n    response.write(\'\\n          <div id="left_sidebar" \', escape=False)\n    response.write(XML(left_sidebar_style))\n    response.write(\' >\\n            <div style="padding: 4px;">\\n          \', escape=False)\n    response.write(\'Content Left Sidebar\', escape=False)\n    response.write(\'       \\n            </div>\\n          </div><!-- left_sidebar -->\\n      \', escape=False)\n    pass\nresponse.write(\'\\n\\n      <!-- content -->\\n      <div id="content" \', escape=False)\nresponse.write(XML(style_content))\nresponse.write(\' >\\n        \', escape=False)\nresponse.write(\'\\n\\n\', escape=False)\n# customize form\nresponse.write(\'\\n\', escape=False)\n#=form\nresponse.write(\'\\n\\n\', escape=False)\nresponse.write(form.custom.begin)\nresponse.write(\'\\n\\nMRN: <div>\', escape=False)\nresponse.write(form.custom.widget.mrn)\nresponse.write(\'</div>\\nLName: <div>\', escape=False)\nresponse.write(form.custom.widget.lname)\nresponse.write(\'</div>\\n\\n\\n<table>\\n    <th>DOB</th>\\n    <th>Action</th>        \\n    \', escape=False)\n# Write out recent patients (by dob)\nresponse.write(\'\\n    <tr>\\n        <th>Name</th>\\n        <td>\', escape=False)\nresponse.write(patient.lname)\nresponse.write(\'</td>\\n        <th>MRN</th>\\n        <td>\', escape=False)\nresponse.write(patient.mrn)\nresponse.write(\'</td>\\n    </tr>\\n\\\\</table> \\n\\n\\n\', escape=False)\nresponse.write(form.custom.end)\nresponse.write(\'\\n\', escape=False)\nresponse.write(\' \\n      </div>\\n      <!-- content -->\\n\\n      \', escape=False)\nif right_sidebar_enabled:\n    response.write(\'\\n          <div id="right_sidebar" \', escape=False)\n    response.write(XML(right_sidebar_style))\n    response.write(\' >\\n            <div style="padding: 4px;">\\n              \', escape=False)\n    response.write(\'Content Right Sidebar\', escape=False)\n    response.write(\'\\n            </div>\\n      </div><!-- right_sidebar -->\\n          \', escape=False)\n    pass\nresponse.write(\'\\n\\n\\n      <div style="clear: both;"></div><!-- Clear the divs -->\\n      \\n    </div><!-- page -->                         \\n    \\n    <div id="footer">\\n      \', escape=False)\nresponse.write(\' <!-- this is default footer -->\\n      <a href="http://www.web2py.com/" style="float: left; padding-right: 6px;">\\n        <img src="\', escape=False)\nresponse.write(URL(\'static\',\'images/poweredby.png\'))\nresponse.write(\'"/>\\n      </a>\\n      \', escape=False)\nresponse.write(T(\'Copyright\'))\nresponse.write(\' &#169; 2012 BrendanC               \\n      <div style="clear: both;"></div><!-- Clear the divs -->\\n      \', escape=False)\nresponse.write(\'\\n\\n    </div><!-- footer -->           \\n      </div><!-- wrapper -->\\n    </div><!-- container -->        \\n    \\n    <!--[if lt IE 7 ]>\\n    <script src="\', escape=False)\nresponse.write(URL(\'static\',\'js/dd_belatedpng.js\'))\nresponse.write(\'"></script>\\n    <script> DD_belatedPNG.fix(\\\'img, .png_bg\\\'); //fix any <img> or .png_bg background-images </script>\\n    <![endif]-->\\n    \\n    <!-- asynchronous google analytics: mathiasbynens.be/notes/async-analytics-snippet \\n     change the UA-XXXXX-X to be your site\\\'s ID -->\\n    <!--   \\n       <script>\\n         var _gaq = [[\\\'_setAccount\\\', \\\'UA-XXXXX-X\\\'], [\\\'_trackPageview\\\']];\\n         (function(d, t) {\\n         var g = d.createElement(t),\\n         s = d.getElementsByTagName(t)[0];\\n         g.async = true;\\n         g.src = \\\'//www.google-analytics.com/ga.js\\\';\\n         s.parentNode.insertBefore(g, s);\\n         })(document, \\\'script\\\');\\n       </script>\\n       -->    \\n  </body>\\n</html>\\n\', escape=False)'
p7
sS'snapshot'
p8
(dp9
S'exception'
p10
(dp11
S'__hash__'
p12
S"<method-wrapper '__hash__' of exceptions.NameError object>"
p13
sS'__setattr__'
p14
S"<method-wrapper '__setattr__' of exceptions.NameError object>"
p15
sS'__reduce_ex__'
p16
S'<built-in method __reduce_ex__ of exceptions.NameError object>'
p17
sS'__getslice__'
p18
S"<method-wrapper '__getslice__' of exceptions.NameError object>"
p19
sS'__getitem__'
p20
S"<method-wrapper '__getitem__' of exceptions.NameError object>"
p21
sS'__setstate__'
p22
S'<built-in method __setstate__ of exceptions.NameError object>'
p23
sS'__reduce__'
p24
S'<built-in method __reduce__ of exceptions.NameError object>'
p25
sS'__str__'
p26
S"<method-wrapper '__str__' of exceptions.NameError object>"
p27
sS'__format__'
p28
S'<built-in method __format__ of exceptions.NameError object>'
p29
sS'__getattribute__'
p30
S"<method-wrapper '__getattribute__' of exceptions.NameError object>"
p31
sS'__class__'
p32
S"<type 'exceptions.NameError'>"
p33
sS'__unicode__'
p34
S'<built-in method __unicode__ of exceptions.NameError object>'
p35
sS'__delattr__'
p36
S"<method-wrapper '__delattr__' of exceptions.NameError object>"
p37
sS'__subclasshook__'
p38
S'<built-in method __subclasshook__ of type object>'
p39
sS'__repr__'
p40
S"<method-wrapper '__repr__' of exceptions.NameError object>"
p41
sS'args'
p42
S'("name \'patient\' is not defined",)'
p43
sS'__dict__'
p44
S'{}'
p45
sS'__sizeof__'
p46
S'<built-in method __sizeof__ of exceptions.NameError object>'
p47
sS'__doc__'
p48
S"'Name not found globally.'"
p49
sS'__init__'
p50
S"<method-wrapper '__init__' of exceptions.NameError object>"
p51
sS'__new__'
p52
S'<built-in method __new__ of type object>'
p53
ssS'evalue'
p54
S"name 'patient' is not defined"
p55
sS'request'
p56
ccopy_reg
_reconstructor
p57
(cgluon.html
BEAUTIFY
p58
c__builtin__
object
p59
NtRp60
(dp61
S'attributes'
p62
(dp63
sS'components'
p64
(lp65
g57
(cgluon.html
TABLE
p66
g59
NtRp67
(dp68
g62
(dp69
S'level'
p70
I5
ssS'parent'
p71
Nsg64
(lp72
g57
(cgluon.html
TR
p73
g59
NtRp74
(dp75
g62
(dp76
sg71
g67
sg64
(lp77
g57
(cgluon.html
TD
p78
g59
NtRp79
(dp80
g62
(dp81
S'_style'
p82
S'font-weight:bold;vertical-align:top'
p83
ssg71
g74
sg64
(lp84
S'ajax'
p85
asbag57
(g78
g59
NtRp86
(dp87
g62
(dp88
S'_valign'
p89
S'top'
p90
ssg71
g74
sg64
(lp91
S':'
asbag57
(g78
g59
NtRp92
(dp93
g62
(dp94
sg71
g74
sg64
(lp95
g57
(g58
g59
NtRp96
(dp97
g62
(dp98
g70
I5
ssg71
g92
sg64
(lp99
S'False'
p100
asbasbasbag57
(g73
g59
NtRp101
(dp102
g62
(dp103
sg71
g67
sg64
(lp104
g57
(g78
g59
NtRp105
(dp106
g62
(dp107
g82
g83
ssg71
g101
sg64
(lp108
S'application'
p109
asbag57
(g78
g59
NtRp110
(dp111
g62
(dp112
g89
g90
ssg71
g101
sg64
(lp113
S':'
asbag57
(g78
g59
NtRp114
(dp115
g62
(dp116
sg71
g101
sg64
(lp117
g57
(g58
g59
NtRp118
(dp119
g62
(dp120
g70
I5
ssg71
g114
sg64
(lp121
S'uodb'
p122
asbasbasbag57
(g73
g59
NtRp123
(dp124
g62
(dp125
sg71
g67
sg64
(lp126
g57
(g78
g59
NtRp127
(dp128
g62
(dp129
g82
g83
ssg71
g123
sg64
(lp130
g42
asbag57
(g78
g59
NtRp131
(dp132
g62
(dp133
g89
g90
ssg71
g123
sg64
(lp134
S':'
asbag57
(g78
g59
NtRp135
(dp136
g62
(dp137
sg71
g123
sg64
(lp138
g57
(g58
g59
NtRp139
(dp140
g62
(dp141
g70
I5
ssg71
g135
sg64
(lp142
g57
(g66
g59
NtRp143
(dp144
g62
(dp145
g70
I4
ssg71
Nsg64
(lp146
sbasbasbasbag57
(g73
g59
NtRp147
(dp148
g62
(dp149
sg71
g67
sg64
(lp150
g57
(g78
g59
NtRp151
(dp152
g62
(dp153
g82
g83
ssg71
g147
sg64
(lp154
S'body'
p155
asbag57
(g78
g59
NtRp156
(dp157
g62
(dp158
g89
g90
ssg71
g147
sg64
(lp159
S':'
asbag57
(g78
g59
NtRp160
(dp161
g62
(dp162
sg71
g147
sg64
(lp163
g57
(g58
g59
NtRp164
(dp165
g62
(dp166
g70
I5
ssg71
g160
sg64
(lp167
S'<cStringIO.StringO object at 0xae13aee0>'
p168
asbasbasbag57
(g73
g59
NtRp169
(dp170
g62
(dp171
sg71
g67
sg64
(lp172
g57
(g78
g59
NtRp173
(dp174
g62
(dp175
g82
g83
ssg71
g169
sg64
(lp176
S'client'
p177
asbag57
(g78
g59
NtRp178
(dp179
g62
(dp180
g89
g90
ssg71
g169
sg64
(lp181
S':'
asbag57
(g78
g59
NtRp182
(dp183
g62
(dp184
sg71
g169
sg64
(lp185
g57
(g58
g59
NtRp186
(dp187
g62
(dp188
g70
I5
ssg71
g182
sg64
(lp189
S'127.0.0.1'
p190
asbasbasbag57
(g73
g59
NtRp191
(dp192
g62
(dp193
sg71
g67
sg64
(lp194
g57
(g78
g59
NtRp195
(dp196
g62
(dp197
g82
g83
ssg71
g191
sg64
(lp198
S'controller'
p199
asbag57
(g78
g59
NtRp200
(dp201
g62
(dp202
g89
g90
ssg71
g191
sg64
(lp203
S':'
asbag57
(g78
g59
NtRp204
(dp205
g62
(dp206
sg71
g191
sg64
(lp207
g57
(g58
g59
NtRp208
(dp209
g62
(dp210
g70
I5
ssg71
g204
sg64
(lp211
S'ptcrud'
p212
asbasbasbag57
(g73
g59
NtRp213
(dp214
g62
(dp215
sg71
g67
sg64
(lp216
g57
(g78
g59
NtRp217
(dp218
g62
(dp219
g82
g83
ssg71
g213
sg64
(lp220
S'cookies'
p221
asbag57
(g78
g59
NtRp222
(dp223
g62
(dp224
g89
g90
ssg71
g213
sg64
(lp225
S':'
asbag57
(g78
g59
NtRp226
(dp227
g62
(dp228
sg71
g213
sg64
(lp229
g57
(g58
g59
NtRp230
(dp231
g62
(dp232
g70
I5
ssg71
g226
sg64
(lp233
g57
(g66
g59
NtRp234
(dp235
g62
(dp236
g70
I4
ssg71
Nsg64
(lp237
g57
(g73
g59
NtRp238
(dp239
g62
(dp240
sg71
g234
sg64
(lp241
g57
(g78
g59
NtRp242
(dp243
g62
(dp244
g82
g83
ssg71
g238
sg64
(lp245
S'session_id_admin'
p246
asbag57
(g78
g59
NtRp247
(dp248
g62
(dp249
g89
g90
ssg71
g238
sg64
(lp250
S':'
asbag57
(g78
g59
NtRp251
(dp252
g62
(dp253
sg71
g238
sg64
(lp254
g57
(g58
g59
NtRp255
(dp256
g62
(dp257
g70
I4
ssg71
g251
sg64
(lp258
g57
(g66
g59
NtRp259
(dp260
g62
(dp261
g70
I3
ssg71
Nsg64
(lp262
g57
(g73
g59
NtRp263
(dp264
g62
(dp265
sg71
g259
sg64
(lp266
g57
(g78
g59
NtRp267
(dp268
g62
(dp269
g82
g83
ssg71
g263
sg64
(lp270
S'comment'
p271
asbag57
(g78
g59
NtRp272
(dp273
g62
(dp274
g89
g90
ssg71
g263
sg64
(lp275
S':'
asbag57
(g78
g59
NtRp276
(dp277
g62
(dp278
sg71
g263
sg64
(lp279
g57
(g58
g59
NtRp280
(dp281
g62
(dp282
g70
I3
ssg71
g276
sg64
(lp283
S''
asbasbasbag57
(g73
g59
NtRp284
(dp285
g62
(dp286
sg71
g259
sg64
(lp287
g57
(g78
g59
NtRp288
(dp289
g62
(dp290
g82
g83
ssg71
g284
sg64
(lp291
S'domain'
p292
asbag57
(g78
g59
NtRp293
(dp294
g62
(dp295
g89
g90
ssg71
g284
sg64
(lp296
S':'
asbag57
(g78
g59
NtRp297
(dp298
g62
(dp299
sg71
g284
sg64
(lp300
g57
(g58
g59
NtRp301
(dp302
g62
(dp303
g70
I3
ssg71
g297
sg64
(lp304
S''
asbasbasbag57
(g73
g59
NtRp305
(dp306
g62
(dp307
sg71
g259
sg64
(lp308
g57
(g78
g59
NtRp309
(dp310
g62
(dp311
g82
g83
ssg71
g305
sg64
(lp312
S'expires'
p313
asbag57
(g78
g59
NtRp314
(dp315
g62
(dp316
g89
g90
ssg71
g305
sg64
(lp317
S':'
asbag57
(g78
g59
NtRp318
(dp319
g62
(dp320
sg71
g305
sg64
(lp321
g57
(g58
g59
NtRp322
(dp323
g62
(dp324
g70
I3
ssg71
g318
sg64
(lp325
S''
asbasbasbag57
(g73
g59
NtRp326
(dp327
g62
(dp328
sg71
g259
sg64
(lp329
g57
(g78
g59
NtRp330
(dp331
g62
(dp332
g82
g83
ssg71
g326
sg64
(lp333
S'httponly'
p334
asbag57
(g78
g59
NtRp335
(dp336
g62
(dp337
g89
g90
ssg71
g326
sg64
(lp338
S':'
asbag57
(g78
g59
NtRp339
(dp340
g62
(dp341
sg71
g326
sg64
(lp342
g57
(g58
g59
NtRp343
(dp344
g62
(dp345
g70
I3
ssg71
g339
sg64
(lp346
S''
asbasbasbag57
(g73
g59
NtRp347
(dp348
g62
(dp349
sg71
g259
sg64
(lp350
g57
(g78
g59
NtRp351
(dp352
g62
(dp353
g82
g83
ssg71
g347
sg64
(lp354
S'max-age'
p355
asbag57
(g78
g59
NtRp356
(dp357
g62
(dp358
g89
g90
ssg71
g347
sg64
(lp359
S':'
asbag57
(g78
g59
NtRp360
(dp361
g62
(dp362
sg71
g347
sg64
(lp363
g57
(g58
g59
NtRp364
(dp365
g62
(dp366
g70
I3
ssg71
g360
sg64
(lp367
S''
asbasbasbag57
(g73
g59
NtRp368
(dp369
g62
(dp370
sg71
g259
sg64
(lp371
g57
(g78
g59
NtRp372
(dp373
g62
(dp374
g82
g83
ssg71
g368
sg64
(lp375
S'path'
p376
asbag57
(g78
g59
NtRp377
(dp378
g62
(dp379
g89
g90
ssg71
g368
sg64
(lp380
S':'
asbag57
(g78
g59
NtRp381
(dp382
g62
(dp383
sg71
g368
sg64
(lp384
g57
(g58
g59
NtRp385
(dp386
g62
(dp387
g70
I3
ssg71
g381
sg64
(lp388
S''
asbasbasbag57
(g73
g59
NtRp389
(dp390
g62
(dp391
sg71
g259
sg64
(lp392
g57
(g78
g59
NtRp393
(dp394
g62
(dp395
g82
g83
ssg71
g389
sg64
(lp396
S'secure'
p397
asbag57
(g78
g59
NtRp398
(dp399
g62
(dp400
g89
g90
ssg71
g389
sg64
(lp401
S':'
asbag57
(g78
g59
NtRp402
(dp403
g62
(dp404
sg71
g389
sg64
(lp405
g57
(g58
g59
NtRp406
(dp407
g62
(dp408
g70
I3
ssg71
g402
sg64
(lp409
S''
asbasbasbag57
(g73
g59
NtRp410
(dp411
g62
(dp412
sg71
g259
sg64
(lp413
g57
(g78
g59
NtRp414
(dp415
g62
(dp416
g82
g83
ssg71
g410
sg64
(lp417
S'version'
p418
asbag57
(g78
g59
NtRp419
(dp420
g62
(dp421
g89
g90
ssg71
g410
sg64
(lp422
S':'
asbag57
(g78
g59
NtRp423
(dp424
g62
(dp425
sg71
g410
sg64
(lp426
g57
(g58
g59
NtRp427
(dp428
g62
(dp429
g70
I3
ssg71
g423
sg64
(lp430
S''
asbasbasbasbasbasbasbag57
(g73
g59
NtRp431
(dp432
g62
(dp433
sg71
g234
sg64
(lp434
g57
(g78
g59
NtRp435
(dp436
g62
(dp437
g82
g83
ssg71
g431
sg64
(lp438
S'session_id_psp2py'
p439
asbag57
(g78
g59
NtRp440
(dp441
g62
(dp442
g89
g90
ssg71
g431
sg64
(lp443
S':'
asbag57
(g78
g59
NtRp444
(dp445
g62
(dp446
sg71
g431
sg64
(lp447
g57
(g58
g59
NtRp448
(dp449
g62
(dp450
g70
I4
ssg71
g444
sg64
(lp451
g57
(g66
g59
NtRp452
(dp453
g62
(dp454
g70
I3
ssg71
Nsg64
(lp455
g57
(g73
g59
NtRp456
(dp457
g62
(dp458
sg71
g452
sg64
(lp459
g57
(g78
g59
NtRp460
(dp461
g62
(dp462
g82
g83
ssg71
g456
sg64
(lp463
g271
asbag57
(g78
g59
NtRp464
(dp465
g62
(dp466
g89
g90
ssg71
g456
sg64
(lp467
S':'
asbag57
(g78
g59
NtRp468
(dp469
g62
(dp470
sg71
g456
sg64
(lp471
g57
(g58
g59
NtRp472
(dp473
g62
(dp474
g70
I3
ssg71
g468
sg64
(lp475
S''
asbasbasbag57
(g73
g59
NtRp476
(dp477
g62
(dp478
sg71
g452
sg64
(lp479
g57
(g78
g59
NtRp480
(dp481
g62
(dp482
g82
g83
ssg71
g476
sg64
(lp483
g292
asbag57
(g78
g59
NtRp484
(dp485
g62
(dp486
g89
g90
ssg71
g476
sg64
(lp487
S':'
asbag57
(g78
g59
NtRp488
(dp489
g62
(dp490
sg71
g476
sg64
(lp491
g57
(g58
g59
NtRp492
(dp493
g62
(dp494
g70
I3
ssg71
g488
sg64
(lp495
S''
asbasbasbag57
(g73
g59
NtRp496
(dp497
g62
(dp498
sg71
g452
sg64
(lp499
g57
(g78
g59
NtRp500
(dp501
g62
(dp502
g82
g83
ssg71
g496
sg64
(lp503
g313
asbag57
(g78
g59
NtRp504
(dp505
g62
(dp506
g89
g90
ssg71
g496
sg64
(lp507
S':'
asbag57
(g78
g59
NtRp508
(dp509
g62
(dp510
sg71
g496
sg64
(lp511
g57
(g58
g59
NtRp512
(dp513
g62
(dp514
g70
I3
ssg71
g508
sg64
(lp515
S''
asbasbasbag57
(g73
g59
NtRp516
(dp517
g62
(dp518
sg71
g452
sg64
(lp519
g57
(g78
g59
NtRp520
(dp521
g62
(dp522
g82
g83
ssg71
g516
sg64
(lp523
g334
asbag57
(g78
g59
NtRp524
(dp525
g62
(dp526
g89
g90
ssg71
g516
sg64
(lp527
S':'
asbag57
(g78
g59
NtRp528
(dp529
g62
(dp530
sg71
g516
sg64
(lp531
g57
(g58
g59
NtRp532
(dp533
g62
(dp534
g70
I3
ssg71
g528
sg64
(lp535
S''
asbasbasbag57
(g73
g59
NtRp536
(dp537
g62
(dp538
sg71
g452
sg64
(lp539
g57
(g78
g59
NtRp540
(dp541
g62
(dp542
g82
g83
ssg71
g536
sg64
(lp543
g355
asbag57
(g78
g59
NtRp544
(dp545
g62
(dp546
g89
g90
ssg71
g536
sg64
(lp547
S':'
asbag57
(g78
g59
NtRp548
(dp549
g62
(dp550
sg71
g536
sg64
(lp551
g57
(g58
g59
NtRp552
(dp553
g62
(dp554
g70
I3
ssg71
g548
sg64
(lp555
S''
asbasbasbag57
(g73
g59
NtRp556
(dp557
g62
(dp558
sg71
g452
sg64
(lp559
g57
(g78
g59
NtRp560
(dp561
g62
(dp562
g82
g83
ssg71
g556
sg64
(lp563
g376
asbag57
(g78
g59
NtRp564
(dp565
g62
(dp566
g89
g90
ssg71
g556
sg64
(lp567
S':'
asbag57
(g78
g59
NtRp568
(dp569
g62
(dp570
sg71
g556
sg64
(lp571
g57
(g58
g59
NtRp572
(dp573
g62
(dp574
g70
I3
ssg71
g568
sg64
(lp575
S''
asbasbasbag57
(g73
g59
NtRp576
(dp577
g62
(dp578
sg71
g452
sg64
(lp579
g57
(g78
g59
NtRp580
(dp581
g62
(dp582
g82
g83
ssg71
g576
sg64
(lp583
g397
asbag57
(g78
g59
NtRp584
(dp585
g62
(dp586
g89
g90
ssg71
g576
sg64
(lp587
S':'
asbag57
(g78
g59
NtRp588
(dp589
g62
(dp590
sg71
g576
sg64
(lp591
g57
(g58
g59
NtRp592
(dp593
g62
(dp594
g70
I3
ssg71
g588
sg64
(lp595
S''
asbasbasbag57
(g73
g59
NtRp596
(dp597
g62
(dp598
sg71
g452
sg64
(lp599
g57
(g78
g59
NtRp600
(dp601
g62
(dp602
g82
g83
ssg71
g596
sg64
(lp603
g418
asbag57
(g78
g59
NtRp604
(dp605
g62
(dp606
g89
g90
ssg71
g596
sg64
(lp607
S':'
asbag57
(g78
g59
NtRp608
(dp609
g62
(dp610
sg71
g596
sg64
(lp611
g57
(g58
g59
NtRp612
(dp613
g62
(dp614
g70
I3
ssg71
g608
sg64
(lp615
S''
asbasbasbasbasbasbasbag57
(g73
g59
NtRp616
(dp617
g62
(dp618
sg71
g234
sg64
(lp619
g57
(g78
g59
NtRp620
(dp621
g62
(dp622
g82
g83
ssg71
g616
sg64
(lp623
S'session_id_uodb'
p624
asbag57
(g78
g59
NtRp625
(dp626
g62
(dp627
g89
g90
ssg71
g616
sg64
(lp628
S':'
asbag57
(g78
g59
NtRp629
(dp630
g62
(dp631
sg71
g616
sg64
(lp632
g57
(g58
g59
NtRp633
(dp634
g62
(dp635
g70
I4
ssg71
g629
sg64
(lp636
g57
(g66
g59
NtRp637
(dp638
g62
(dp639
g70
I3
ssg71
Nsg64
(lp640
g57
(g73
g59
NtRp641
(dp642
g62
(dp643
sg71
g637
sg64
(lp644
g57
(g78
g59
NtRp645
(dp646
g62
(dp647
g82
g83
ssg71
g641
sg64
(lp648
g271
asbag57
(g78
g59
NtRp649
(dp650
g62
(dp651
g89
g90
ssg71
g641
sg64
(lp652
S':'
asbag57
(g78
g59
NtRp653
(dp654
g62
(dp655
sg71
g641
sg64
(lp656
g57
(g58
g59
NtRp657
(dp658
g62
(dp659
g70
I3
ssg71
g653
sg64
(lp660
S''
asbasbasbag57
(g73
g59
NtRp661
(dp662
g62
(dp663
sg71
g637
sg64
(lp664
g57
(g78
g59
NtRp665
(dp666
g62
(dp667
g82
g83
ssg71
g661
sg64
(lp668
g292
asbag57
(g78
g59
NtRp669
(dp670
g62
(dp671
g89
g90
ssg71
g661
sg64
(lp672
S':'
asbag57
(g78
g59
NtRp673
(dp674
g62
(dp675
sg71
g661
sg64
(lp676
g57
(g58
g59
NtRp677
(dp678
g62
(dp679
g70
I3
ssg71
g673
sg64
(lp680
S''
asbasbasbag57
(g73
g59
NtRp681
(dp682
g62
(dp683
sg71
g637
sg64
(lp684
g57
(g78
g59
NtRp685
(dp686
g62
(dp687
g82
g83
ssg71
g681
sg64
(lp688
g313
asbag57
(g78
g59
NtRp689
(dp690
g62
(dp691
g89
g90
ssg71
g681
sg64
(lp692
S':'
asbag57
(g78
g59
NtRp693
(dp694
g62
(dp695
sg71
g681
sg64
(lp696
g57
(g58
g59
NtRp697
(dp698
g62
(dp699
g70
I3
ssg71
g693
sg64
(lp700
S''
asbasbasbag57
(g73
g59
NtRp701
(dp702
g62
(dp703
sg71
g637
sg64
(lp704
g57
(g78
g59
NtRp705
(dp706
g62
(dp707
g82
g83
ssg71
g701
sg64
(lp708
g334
asbag57
(g78
g59
NtRp709
(dp710
g62
(dp711
g89
g90
ssg71
g701
sg64
(lp712
S':'
asbag57
(g78
g59
NtRp713
(dp714
g62
(dp715
sg71
g701
sg64
(lp716
g57
(g58
g59
NtRp717
(dp718
g62
(dp719
g70
I3
ssg71
g713
sg64
(lp720
S''
asbasbasbag57
(g73
g59
NtRp721
(dp722
g62
(dp723
sg71
g637
sg64
(lp724
g57
(g78
g59
NtRp725
(dp726
g62
(dp727
g82
g83
ssg71
g721
sg64
(lp728
g355
asbag57
(g78
g59
NtRp729
(dp730
g62
(dp731
g89
g90
ssg71
g721
sg64
(lp732
S':'
asbag57
(g78
g59
NtRp733
(dp734
g62
(dp735
sg71
g721
sg64
(lp736
g57
(g58
g59
NtRp737
(dp738
g62
(dp739
g70
I3
ssg71
g733
sg64
(lp740
S''
asbasbasbag57
(g73
g59
NtRp741
(dp742
g62
(dp743
sg71
g637
sg64
(lp744
g57
(g78
g59
NtRp745
(dp746
g62
(dp747
g82
g83
ssg71
g741
sg64
(lp748
g376
asbag57
(g78
g59
NtRp749
(dp750
g62
(dp751
g89
g90
ssg71
g741
sg64
(lp752
S':'
asbag57
(g78
g59
NtRp753
(dp754
g62
(dp755
sg71
g741
sg64
(lp756
g57
(g58
g59
NtRp757
(dp758
g62
(dp759
g70
I3
ssg71
g753
sg64
(lp760
S''
asbasbasbag57
(g73
g59
NtRp761
(dp762
g62
(dp763
sg71
g637
sg64
(lp764
g57
(g78
g59
NtRp765
(dp766
g62
(dp767
g82
g83
ssg71
g761
sg64
(lp768
g397
asbag57
(g78
g59
NtRp769
(dp770
g62
(dp771
g89
g90
ssg71
g761
sg64
(lp772
S':'
asbag57
(g78
g59
NtRp773
(dp774
g62
(dp775
sg71
g761
sg64
(lp776
g57
(g58
g59
NtRp777
(dp778
g62
(dp779
g70
I3
ssg71
g773
sg64
(lp780
S''
asbasbasbag57
(g73
g59
NtRp781
(dp782
g62
(dp783
sg71
g637
sg64
(lp784
g57
(g78
g59
NtRp785
(dp786
g62
(dp787
g82
g83
ssg71
g781
sg64
(lp788
g418
asbag57
(g78
g59
NtRp789
(dp790
g62
(dp791
g89
g90
ssg71
g781
sg64
(lp792
S':'
asbag57
(g78
g59
NtRp793
(dp794
g62
(dp795
sg71
g781
sg64
(lp796
g57
(g58
g59
NtRp797
(dp798
g62
(dp799
g70
I3
ssg71
g793
sg64
(lp800
S''
asbasbasbasbasbasbasbag57
(g73
g59
NtRp801
(dp802
g62
(dp803
sg71
g234
sg64
(lp804
g57
(g78
g59
NtRp805
(dp806
g62
(dp807
g82
g83
ssg71
g801
sg64
(lp808
S'session_id_welcome'
p809
asbag57
(g78
g59
NtRp810
(dp811
g62
(dp812
g89
g90
ssg71
g801
sg64
(lp813
S':'
asbag57
(g78
g59
NtRp814
(dp815
g62
(dp816
sg71
g801
sg64
(lp817
g57
(g58
g59
NtRp818
(dp819
g62
(dp820
g70
I4
ssg71
g814
sg64
(lp821
g57
(g66
g59
NtRp822
(dp823
g62
(dp824
g70
I3
ssg71
Nsg64
(lp825
g57
(g73
g59
NtRp826
(dp827
g62
(dp828
sg71
g822
sg64
(lp829
g57
(g78
g59
NtRp830
(dp831
g62
(dp832
g82
g83
ssg71
g826
sg64
(lp833
g271
asbag57
(g78
g59
NtRp834
(dp835
g62
(dp836
g89
g90
ssg71
g826
sg64
(lp837
S':'
asbag57
(g78
g59
NtRp838
(dp839
g62
(dp840
sg71
g826
sg64
(lp841
g57
(g58
g59
NtRp842
(dp843
g62
(dp844
g70
I3
ssg71
g838
sg64
(lp845
S''
asbasbasbag57
(g73
g59
NtRp846
(dp847
g62
(dp848
sg71
g822
sg64
(lp849
g57
(g78
g59
NtRp850
(dp851
g62
(dp852
g82
g83
ssg71
g846
sg64
(lp853
g292
asbag57
(g78
g59
NtRp854
(dp855
g62
(dp856
g89
g90
ssg71
g846
sg64
(lp857
S':'
asbag57
(g78
g59
NtRp858
(dp859
g62
(dp860
sg71
g846
sg64
(lp861
g57
(g58
g59
NtRp862
(dp863
g62
(dp864
g70
I3
ssg71
g858
sg64
(lp865
S''
asbasbasbag57
(g73
g59
NtRp866
(dp867
g62
(dp868
sg71
g822
sg64
(lp869
g57
(g78
g59
NtRp870
(dp871
g62
(dp872
g82
g83
ssg71
g866
sg64
(lp873
g313
asbag57
(g78
g59
NtRp874
(dp875
g62
(dp876
g89
g90
ssg71
g866
sg64
(lp877
S':'
asbag57
(g78
g59
NtRp878
(dp879
g62
(dp880
sg71
g866
sg64
(lp881
g57
(g58
g59
NtRp882
(dp883
g62
(dp884
g70
I3
ssg71
g878
sg64
(lp885
S''
asbasbasbag57
(g73
g59
NtRp886
(dp887
g62
(dp888
sg71
g822
sg64
(lp889
g57
(g78
g59
NtRp890
(dp891
g62
(dp892
g82
g83
ssg71
g886
sg64
(lp893
g334
asbag57
(g78
g59
NtRp894
(dp895
g62
(dp896
g89
g90
ssg71
g886
sg64
(lp897
S':'
asbag57
(g78
g59
NtRp898
(dp899
g62
(dp900
sg71
g886
sg64
(lp901
g57
(g58
g59
NtRp902
(dp903
g62
(dp904
g70
I3
ssg71
g898
sg64
(lp905
S''
asbasbasbag57
(g73
g59
NtRp906
(dp907
g62
(dp908
sg71
g822
sg64
(lp909
g57
(g78
g59
NtRp910
(dp911
g62
(dp912
g82
g83
ssg71
g906
sg64
(lp913
g355
asbag57
(g78
g59
NtRp914
(dp915
g62
(dp916
g89
g90
ssg71
g906
sg64
(lp917
S':'
asbag57
(g78
g59
NtRp918
(dp919
g62
(dp920
sg71
g906
sg64
(lp921
g57
(g58
g59
NtRp922
(dp923
g62
(dp924
g70
I3
ssg71
g918
sg64
(lp925
S''
asbasbasbag57
(g73
g59
NtRp926
(dp927
g62
(dp928
sg71
g822
sg64
(lp929
g57
(g78
g59
NtRp930
(dp931
g62
(dp932
g82
g83
ssg71
g926
sg64
(lp933
g376
asbag57
(g78
g59
NtRp934
(dp935
g62
(dp936
g89
g90
ssg71
g926
sg64
(lp937
S':'
asbag57
(g78
g59
NtRp938
(dp939
g62
(dp940
sg71
g926
sg64
(lp941
g57
(g58
g59
NtRp942
(dp943
g62
(dp944
g70
I3
ssg71
g938
sg64
(lp945
S''
asbasbasbag57
(g73
g59
NtRp946
(dp947
g62
(dp948
sg71
g822
sg64
(lp949
g57
(g78
g59
NtRp950
(dp951
g62
(dp952
g82
g83
ssg71
g946
sg64
(lp953
g397
asbag57
(g78
g59
NtRp954
(dp955
g62
(dp956
g89
g90
ssg71
g946
sg64
(lp957
S':'
asbag57
(g78
g59
NtRp958
(dp959
g62
(dp960
sg71
g946
sg64
(lp961
g57
(g58
g59
NtRp962
(dp963
g62
(dp964
g70
I3
ssg71
g958
sg64
(lp965
S''
asbasbasbag57
(g73
g59
NtRp966
(dp967
g62
(dp968
sg71
g822
sg64
(lp969
g57
(g78
g59
NtRp970
(dp971
g62
(dp972
g82
g83
ssg71
g966
sg64
(lp973
g418
asbag57
(g78
g59
NtRp974
(dp975
g62
(dp976
g89
g90
ssg71
g966
sg64
(lp977
S':'
asbag57
(g78
g59
NtRp978
(dp979
g62
(dp980
sg71
g966
sg64
(lp981
g57
(g58
g59
NtRp982
(dp983
g62
(dp984
g70
I3
ssg71
g978
sg64
(lp985
S''
asbasbasbasbasbasbasbasbasbasbasbag57
(g73
g59
NtRp986
(dp987
g62
(dp988
sg71
g67
sg64
(lp989
g57
(g78
g59
NtRp990
(dp991
g62
(dp992
g82
g83
ssg71
g986
sg64
(lp993
S'env'
p994
asbag57
(g78
g59
NtRp995
(dp996
g62
(dp997
g89
g90
ssg71
g986
sg64
(lp998
S':'
asbag57
(g78
g59
NtRp999
(dp1000
g62
(dp1001
sg71
g986
sg64
(lp1002
g57
(g58
g59
NtRp1003
(dp1004
g62
(dp1005
g70
I5
ssg71
g999
sg64
(lp1006
g57
(g66
g59
NtRp1007
(dp1008
g62
(dp1009
g70
I4
ssg71
Nsg64
(lp1010
g57
(g73
g59
NtRp1011
(dp1012
g62
(dp1013
sg71
g1007
sg64
(lp1014
g57
(g78
g59
NtRp1015
(dp1016
g62
(dp1017
g82
g83
ssg71
g1011
sg64
(lp1018
S'app_folders'
p1019
asbag57
(g78
g59
NtRp1020
(dp1021
g62
(dp1022
g89
g90
ssg71
g1011
sg64
(lp1023
S':'
asbag57
(g78
g59
NtRp1024
(dp1025
g62
(dp1026
sg71
g1011
sg64
(lp1027
g57
(g58
g59
NtRp1028
(dp1029
g62
(dp1030
g70
I4
ssg71
g1024
sg64
(lp1031
S"set(['/home/brencam/web2py/applications/psp2py/', '/home/brencam/web2py/applications/admin/', '/home/brencam/web2py/applications/welcome/', '/home/brencam/web2py/applications/uodb/'])"
p1032
asbasbasbag57
(g73
g59
NtRp1033
(dp1034
g62
(dp1035
sg71
g1007
sg64
(lp1036
g57
(g78
g59
NtRp1037
(dp1038
g62
(dp1039
g82
g83
ssg71
g1033
sg64
(lp1040
S'applications_parent'
p1041
asbag57
(g78
g59
NtRp1042
(dp1043
g62
(dp1044
g89
g90
ssg71
g1033
sg64
(lp1045
S':'
asbag57
(g78
g59
NtRp1046
(dp1047
g62
(dp1048
sg71
g1033
sg64
(lp1049
g57
(g58
g59
NtRp1050
(dp1051
g62
(dp1052
g70
I4
ssg71
g1046
sg64
(lp1053
S'/home/brencam/web2py'
p1054
asbasbasbag57
(g73
g59
NtRp1055
(dp1056
g62
(dp1057
sg71
g1007
sg64
(lp1058
g57
(g78
g59
NtRp1059
(dp1060
g62
(dp1061
g82
g83
ssg71
g1055
sg64
(lp1062
S'cmd_args'
p1063
asbag57
(g78
g59
NtRp1064
(dp1065
g62
(dp1066
g89
g90
ssg71
g1055
sg64
(lp1067
S':'
asbag57
(g78
g59
NtRp1068
(dp1069
g62
(dp1070
sg71
g1055
sg64
(lp1071
g57
(g58
g59
NtRp1072
(dp1073
g62
(dp1074
g70
I4
ssg71
g1068
sg64
(lp1075
g57
(g66
g59
NtRp1076
(dp1077
g62
(dp1078
g70
I3
ssg71
Nsg64
(lp1079
sbasbasbasbag57
(g73
g59
NtRp1080
(dp1081
g62
(dp1082
sg71
g1007
sg64
(lp1083
g57
(g78
g59
NtRp1084
(dp1085
g62
(dp1086
g82
g83
ssg71
g1080
sg64
(lp1087
S'cmd_options'
p1088
asbag57
(g78
g59
NtRp1089
(dp1090
g62
(dp1091
g89
g90
ssg71
g1080
sg64
(lp1092
S':'
asbag57
(g78
g59
NtRp1093
(dp1094
g62
(dp1095
sg71
g1080
sg64
(lp1096
g57
(g58
g59
NtRp1097
(dp1098
g62
(dp1099
g70
I4
ssg71
g1093
sg64
(lp1100
S"<Values at 0x899970c: {'verbose': False, 'ip': '127.0.0.1', 'shutdown_timeout': 5, 'taskbar': False, 'nocron': False, 'pid_filename': 'httpserver.pid', 'maxthreads': None, 'softcron': False, 'server_name': 'localhost.localdomain', 'bpython': False, 'nogui': False, 'port': 8000, 'extcron': False, 'debuglevel': 30, 'test': None, 'folder': '/home/brencam/web2py', 'config': '', 'import_models': False, 'winservice': '', 'shell': None, 'run': '', 'log_filename': 'httpserver.log', 'args': [''], 'socket_timeout': 1, 'ssl_ca_certificate': None, 'scheduler': None, 'profiler_filename': None, 'ssl_private_key': '', 'password': 'admin', 'request_queue_size': 5, 'ssl_certificate': '', 'cronjob': False, 'numthreads': None, 'quiet': False, 'interfaces': None, 'minthreads': None, 'timeout': 10, 'plain': False, 'nobanner': False}>"
p1101
asbasbasbag57
(g73
g59
NtRp1102
(dp1103
g62
(dp1104
sg71
g1007
sg64
(lp1105
g57
(g78
g59
NtRp1106
(dp1107
g62
(dp1108
g82
g83
ssg71
g1102
sg64
(lp1109
S'db_sessions'
p1110
asbag57
(g78
g59
NtRp1111
(dp1112
g62
(dp1113
g89
g90
ssg71
g1102
sg64
(lp1114
S':'
asbag57
(g78
g59
NtRp1115
(dp1116
g62
(dp1117
sg71
g1102
sg64
(lp1118
g57
(g58
g59
NtRp1119
(dp1120
g62
(dp1121
g70
I4
ssg71
g1115
sg64
(lp1122
S'set([])'
p1123
asbasbasbag57
(g73
g59
NtRp1124
(dp1125
g62
(dp1126
sg71
g1007
sg64
(lp1127
g57
(g78
g59
NtRp1128
(dp1129
g62
(dp1130
g82
g83
ssg71
g1124
sg64
(lp1131
S'debugging'
p1132
asbag57
(g78
g59
NtRp1133
(dp1134
g62
(dp1135
g89
g90
ssg71
g1124
sg64
(lp1136
S':'
asbag57
(g78
g59
NtRp1137
(dp1138
g62
(dp1139
sg71
g1124
sg64
(lp1140
g57
(g58
g59
NtRp1141
(dp1142
g62
(dp1143
g70
I4
ssg71
g1137
sg64
(lp1144
g100
asbasbasbag57
(g73
g59
NtRp1145
(dp1146
g62
(dp1147
sg71
g1007
sg64
(lp1148
g57
(g78
g59
NtRp1149
(dp1150
g62
(dp1151
g82
g83
ssg71
g1145
sg64
(lp1152
S'gluon_parent'
p1153
asbag57
(g78
g59
NtRp1154
(dp1155
g62
(dp1156
g89
g90
ssg71
g1145
sg64
(lp1157
S':'
asbag57
(g78
g59
NtRp1158
(dp1159
g62
(dp1160
sg71
g1145
sg64
(lp1161
g57
(g58
g59
NtRp1162
(dp1163
g62
(dp1164
g70
I4
ssg71
g1158
sg64
(lp1165
S'/home/brencam/web2py'
p1166
asbasbasbag57
(g73
g59
NtRp1167
(dp1168
g62
(dp1169
sg71
g1007
sg64
(lp1170
g57
(g78
g59
NtRp1171
(dp1172
g62
(dp1173
g82
g83
ssg71
g1167
sg64
(lp1174
S'http_accept'
p1175
asbag57
(g78
g59
NtRp1176
(dp1177
g62
(dp1178
g89
g90
ssg71
g1167
sg64
(lp1179
S':'
asbag57
(g78
g59
NtRp1180
(dp1181
g62
(dp1182
sg71
g1167
sg64
(lp1183
g57
(g58
g59
NtRp1184
(dp1185
g62
(dp1186
g70
I4
ssg71
g1180
sg64
(lp1187
S'text/html,application/xhtml+xml,application/xml;q=0.9,*/*;q=0.8'
p1188
asbasbasbag57
(g73
g59
NtRp1189
(dp1190
g62
(dp1191
sg71
g1007
sg64
(lp1192
g57
(g78
g59
NtRp1193
(dp1194
g62
(dp1195
g82
g83
ssg71
g1189
sg64
(lp1196
S'http_accept_charset'
p1197
asbag57
(g78
g59
NtRp1198
(dp1199
g62
(dp1200
g89
g90
ssg71
g1189
sg64
(lp1201
S':'
asbag57
(g78
g59
NtRp1202
(dp1203
g62
(dp1204
sg71
g1189
sg64
(lp1205
g57
(g58
g59
NtRp1206
(dp1207
g62
(dp1208
g70
I4
ssg71
g1202
sg64
(lp1209
S'ISO-8859-1,utf-8;q=0.7,*;q=0.3'
p1210
asbasbasbag57
(g73
g59
NtRp1211
(dp1212
g62
(dp1213
sg71
g1007
sg64
(lp1214
g57
(g78
g59
NtRp1215
(dp1216
g62
(dp1217
g82
g83
ssg71
g1211
sg64
(lp1218
S'http_accept_encoding'
p1219
asbag57
(g78
g59
NtRp1220
(dp1221
g62
(dp1222
g89
g90
ssg71
g1211
sg64
(lp1223
S':'
asbag57
(g78
g59
NtRp1224
(dp1225
g62
(dp1226
sg71
g1211
sg64
(lp1227
g57
(g58
g59
NtRp1228
(dp1229
g62
(dp1230
g70
I4
ssg71
g1224
sg64
(lp1231
S'gzip,deflate,sdch'
p1232
asbasbasbag57
(g73
g59
NtRp1233
(dp1234
g62
(dp1235
sg71
g1007
sg64
(lp1236
g57
(g78
g59
NtRp1237
(dp1238
g62
(dp1239
g82
g83
ssg71
g1233
sg64
(lp1240
S'http_accept_language'
p1241
asbag57
(g78
g59
NtRp1242
(dp1243
g62
(dp1244
g89
g90
ssg71
g1233
sg64
(lp1245
S':'
asbag57
(g78
g59
NtRp1246
(dp1247
g62
(dp1248
sg71
g1233
sg64
(lp1249
g57
(g58
g59
NtRp1250
(dp1251
g62
(dp1252
g70
I4
ssg71
g1246
sg64
(lp1253
S'en-US,en;q=0.8'
p1254
asbasbasbag57
(g73
g59
NtRp1255
(dp1256
g62
(dp1257
sg71
g1007
sg64
(lp1258
g57
(g78
g59
NtRp1259
(dp1260
g62
(dp1261
g82
g83
ssg71
g1255
sg64
(lp1262
S'http_cache_control'
p1263
asbag57
(g78
g59
NtRp1264
(dp1265
g62
(dp1266
g89
g90
ssg71
g1255
sg64
(lp1267
S':'
asbag57
(g78
g59
NtRp1268
(dp1269
g62
(dp1270
sg71
g1255
sg64
(lp1271
g57
(g58
g59
NtRp1272
(dp1273
g62
(dp1274
g70
I4
ssg71
g1268
sg64
(lp1275
S'max-age=0'
p1276
asbasbasbag57
(g73
g59
NtRp1277
(dp1278
g62
(dp1279
sg71
g1007
sg64
(lp1280
g57
(g78
g59
NtRp1281
(dp1282
g62
(dp1283
g82
g83
ssg71
g1277
sg64
(lp1284
S'http_connection'
p1285
asbag57
(g78
g59
NtRp1286
(dp1287
g62
(dp1288
g89
g90
ssg71
g1277
sg64
(lp1289
S':'
asbag57
(g78
g59
NtRp1290
(dp1291
g62
(dp1292
sg71
g1277
sg64
(lp1293
g57
(g58
g59
NtRp1294
(dp1295
g62
(dp1296
g70
I4
ssg71
g1290
sg64
(lp1297
S'keep-alive'
p1298
asbasbasbag57
(g73
g59
NtRp1299
(dp1300
g62
(dp1301
sg71
g1007
sg64
(lp1302
g57
(g78
g59
NtRp1303
(dp1304
g62
(dp1305
g82
g83
ssg71
g1299
sg64
(lp1306
S'http_cookie'
p1307
asbag57
(g78
g59
NtRp1308
(dp1309
g62
(dp1310
g89
g90
ssg71
g1299
sg64
(lp1311
S':'
asbag57
(g78
g59
NtRp1312
(dp1313
g62
(dp1314
sg71
g1299
sg64
(lp1315
g57
(g58
g59
NtRp1316
(dp1317
g62
(dp1318
g70
I4
ssg71
g1312
sg64
(lp1319
S'__utma=96992031.552746526.1281494094.1291180555.1291186411.9; __utma_a2a=7438973308.1350086890.1318529964.1318645324.1318645410.28; session_id_psp2py=127.0.0.1-169803cb-eec7-4b09-a091-7f5531c4507f; session_id_welcome=127.0.0.1-90e61cd4-1288-454d-bd12-6c58f8d56d0b; session_id_admin=127.0.0.1-5d112daa-1ddf-45f9-9ddc-2c6d4805aef4; session_id_uodb=127.0.0.1-94965217-1276-456d-98b3-42ebf908cc20'
p1320
asbasbasbag57
(g73
g59
NtRp1321
(dp1322
g62
(dp1323
sg71
g1007
sg64
(lp1324
g57
(g78
g59
NtRp1325
(dp1326
g62
(dp1327
g82
g83
ssg71
g1321
sg64
(lp1328
S'http_host'
p1329
asbag57
(g78
g59
NtRp1330
(dp1331
g62
(dp1332
g89
g90
ssg71
g1321
sg64
(lp1333
S':'
asbag57
(g78
g59
NtRp1334
(dp1335
g62
(dp1336
sg71
g1321
sg64
(lp1337
g57
(g58
g59
NtRp1338
(dp1339
g62
(dp1340
g70
I4
ssg71
g1334
sg64
(lp1341
S'127.0.0.1:8000'
p1342
asbasbasbag57
(g73
g59
NtRp1343
(dp1344
g62
(dp1345
sg71
g1007
sg64
(lp1346
g57
(g78
g59
NtRp1347
(dp1348
g62
(dp1349
g82
g83
ssg71
g1343
sg64
(lp1350
S'http_referer'
p1351
asbag57
(g78
g59
NtRp1352
(dp1353
g62
(dp1354
g89
g90
ssg71
g1343
sg64
(lp1355
S':'
asbag57
(g78
g59
NtRp1356
(dp1357
g62
(dp1358
sg71
g1343
sg64
(lp1359
g57
(g58
g59
NtRp1360
(dp1361
g62
(dp1362
g70
I4
ssg71
g1356
sg64
(lp1363
S'http://127.0.0.1:8000/uodb/ptcrud/index'
p1364
asbasbasbag57
(g73
g59
NtRp1365
(dp1366
g62
(dp1367
sg71
g1007
sg64
(lp1368
g57
(g78
g59
NtRp1369
(dp1370
g62
(dp1371
g82
g83
ssg71
g1365
sg64
(lp1372
S'http_user_agent'
p1373
asbag57
(g78
g59
NtRp1374
(dp1375
g62
(dp1376
g89
g90
ssg71
g1365
sg64
(lp1377
S':'
asbag57
(g78
g59
NtRp1378
(dp1379
g62
(dp1380
sg71
g1365
sg64
(lp1381
g57
(g58
g59
NtRp1382
(dp1383
g62
(dp1384
g70
I4
ssg71
g1378
sg64
(lp1385
S'Mozilla/5.0 (X11; Linux i686) AppleWebKit/535.1 (KHTML, like Gecko) Chrome/14.0.835.204 Safari/535.1'
p1386
asbasbasbag57
(g73
g59
NtRp1387
(dp1388
g62
(dp1389
sg71
g1007
sg64
(lp1390
g57
(g78
g59
NtRp1391
(dp1392
g62
(dp1393
g82
g83
ssg71
g1387
sg64
(lp1394
S'is_jython'
p1395
asbag57
(g78
g59
NtRp1396
(dp1397
g62
(dp1398
g89
g90
ssg71
g1387
sg64
(lp1399
S':'
asbag57
(g78
g59
NtRp1400
(dp1401
g62
(dp1402
sg71
g1387
sg64
(lp1403
g57
(g58
g59
NtRp1404
(dp1405
g62
(dp1406
g70
I4
ssg71
g1400
sg64
(lp1407
g100
asbasbasbag57
(g73
g59
NtRp1408
(dp1409
g62
(dp1410
sg71
g1007
sg64
(lp1411
g57
(g78
g59
NtRp1412
(dp1413
g62
(dp1414
g82
g83
ssg71
g1408
sg64
(lp1415
S'is_pypy'
p1416
asbag57
(g78
g59
NtRp1417
(dp1418
g62
(dp1419
g89
g90
ssg71
g1408
sg64
(lp1420
S':'
asbag57
(g78
g59
NtRp1421
(dp1422
g62
(dp1423
sg71
g1408
sg64
(lp1424
g57
(g58
g59
NtRp1425
(dp1426
g62
(dp1427
g70
I4
ssg71
g1421
sg64
(lp1428
g100
asbasbasbag57
(g73
g59
NtRp1429
(dp1430
g62
(dp1431
sg71
g1007
sg64
(lp1432
g57
(g78
g59
NtRp1433
(dp1434
g62
(dp1435
g82
g83
ssg71
g1429
sg64
(lp1436
S'path_info'
p1437
asbag57
(g78
g59
NtRp1438
(dp1439
g62
(dp1440
g89
g90
ssg71
g1429
sg64
(lp1441
S':'
asbag57
(g78
g59
NtRp1442
(dp1443
g62
(dp1444
sg71
g1429
sg64
(lp1445
g57
(g58
g59
NtRp1446
(dp1447
g62
(dp1448
g70
I4
ssg71
g1442
sg64
(lp1449
S'/uodb/ptcrud/edit_patient'
p1450
asbasbasbag57
(g73
g59
NtRp1451
(dp1452
g62
(dp1453
sg71
g1007
sg64
(lp1454
g57
(g78
g59
NtRp1455
(dp1456
g62
(dp1457
g82
g83
ssg71
g1451
sg64
(lp1458
S'query_string'
p1459
asbag57
(g78
g59
NtRp1460
(dp1461
g62
(dp1462
g89
g90
ssg71
g1451
sg64
(lp1463
S':'
asbag57
(g78
g59
NtRp1464
(dp1465
g62
(dp1466
sg71
g1451
sg64
(lp1467
g57
(g58
g59
NtRp1468
(dp1469
g62
(dp1470
g70
I4
ssg71
g1464
sg64
(lp1471
S'patient=54'
p1472
asbasbasbag57
(g73
g59
NtRp1473
(dp1474
g62
(dp1475
sg71
g1007
sg64
(lp1476
g57
(g78
g59
NtRp1477
(dp1478
g62
(dp1479
g82
g83
ssg71
g1473
sg64
(lp1480
S'remote_addr'
p1481
asbag57
(g78
g59
NtRp1482
(dp1483
g62
(dp1484
g89
g90
ssg71
g1473
sg64
(lp1485
S':'
asbag57
(g78
g59
NtRp1486
(dp1487
g62
(dp1488
sg71
g1473
sg64
(lp1489
g57
(g58
g59
NtRp1490
(dp1491
g62
(dp1492
g70
I4
ssg71
g1486
sg64
(lp1493
g190
asbasbasbag57
(g73
g59
NtRp1494
(dp1495
g62
(dp1496
sg71
g1007
sg64
(lp1497
g57
(g78
g59
NtRp1498
(dp1499
g62
(dp1500
g82
g83
ssg71
g1494
sg64
(lp1501
S'remote_port'
p1502
asbag57
(g78
g59
NtRp1503
(dp1504
g62
(dp1505
g89
g90
ssg71
g1494
sg64
(lp1506
S':'
asbag57
(g78
g59
NtRp1507
(dp1508
g62
(dp1509
sg71
g1494
sg64
(lp1510
g57
(g58
g59
NtRp1511
(dp1512
g62
(dp1513
g70
I4
ssg71
g1507
sg64
(lp1514
S'56649'
p1515
asbasbasbag57
(g73
g59
NtRp1516
(dp1517
g62
(dp1518
sg71
g1007
sg64
(lp1519
g57
(g78
g59
NtRp1520
(dp1521
g62
(dp1522
g82
g83
ssg71
g1516
sg64
(lp1523
S'request_method'
p1524
asbag57
(g78
g59
NtRp1525
(dp1526
g62
(dp1527
g89
g90
ssg71
g1516
sg64
(lp1528
S':'
asbag57
(g78
g59
NtRp1529
(dp1530
g62
(dp1531
sg71
g1516
sg64
(lp1532
g57
(g58
g59
NtRp1533
(dp1534
g62
(dp1535
g70
I4
ssg71
g1529
sg64
(lp1536
S'GET'
p1537
asbasbasbag57
(g73
g59
NtRp1538
(dp1539
g62
(dp1540
sg71
g1007
sg64
(lp1541
g57
(g78
g59
NtRp1542
(dp1543
g62
(dp1544
g82
g83
ssg71
g1538
sg64
(lp1545
S'script_name'
p1546
asbag57
(g78
g59
NtRp1547
(dp1548
g62
(dp1549
g89
g90
ssg71
g1538
sg64
(lp1550
S':'
asbag57
(g78
g59
NtRp1551
(dp1552
g62
(dp1553
sg71
g1538
sg64
(lp1554
g57
(g58
g59
NtRp1555
(dp1556
g62
(dp1557
g70
I4
ssg71
g1551
sg64
(lp1558
S''
asbasbasbag57
(g73
g59
NtRp1559
(dp1560
g62
(dp1561
sg71
g1007
sg64
(lp1562
g57
(g78
g59
NtRp1563
(dp1564
g62
(dp1565
g82
g83
ssg71
g1559
sg64
(lp1566
S'server_name'
p1567
asbag57
(g78
g59
NtRp1568
(dp1569
g62
(dp1570
g89
g90
ssg71
g1559
sg64
(lp1571
S':'
asbag57
(g78
g59
NtRp1572
(dp1573
g62
(dp1574
sg71
g1559
sg64
(lp1575
g57
(g58
g59
NtRp1576
(dp1577
g62
(dp1578
g70
I4
ssg71
g1572
sg64
(lp1579
S'localhost.localdomain'
p1580
asbasbasbag57
(g73
g59
NtRp1581
(dp1582
g62
(dp1583
sg71
g1007
sg64
(lp1584
g57
(g78
g59
NtRp1585
(dp1586
g62
(dp1587
g82
g83
ssg71
g1581
sg64
(lp1588
S'server_port'
p1589
asbag57
(g78
g59
NtRp1590
(dp1591
g62
(dp1592
g89
g90
ssg71
g1581
sg64
(lp1593
S':'
asbag57
(g78
g59
NtRp1594
(dp1595
g62
(dp1596
sg71
g1581
sg64
(lp1597
g57
(g58
g59
NtRp1598
(dp1599
g62
(dp1600
g70
I4
ssg71
g1594
sg64
(lp1601
S'8000'
p1602
asbasbasbag57
(g73
g59
NtRp1603
(dp1604
g62
(dp1605
sg71
g1007
sg64
(lp1606
g57
(g78
g59
NtRp1607
(dp1608
g62
(dp1609
g82
g83
ssg71
g1603
sg64
(lp1610
S'server_protocol'
p1611
asbag57
(g78
g59
NtRp1612
(dp1613
g62
(dp1614
g89
g90
ssg71
g1603
sg64
(lp1615
S':'
asbag57
(g78
g59
NtRp1616
(dp1617
g62
(dp1618
sg71
g1603
sg64
(lp1619
g57
(g58
g59
NtRp1620
(dp1621
g62
(dp1622
g70
I4
ssg71
g1616
sg64
(lp1623
S'HTTP/1.1'
p1624
asbasbasbag57
(g73
g59
NtRp1625
(dp1626
g62
(dp1627
sg71
g1007
sg64
(lp1628
g57
(g78
g59
NtRp1629
(dp1630
g62
(dp1631
g82
g83
ssg71
g1625
sg64
(lp1632
S'server_software'
p1633
asbag57
(g78
g59
NtRp1634
(dp1635
g62
(dp1636
g89
g90
ssg71
g1625
sg64
(lp1637
S':'
asbag57
(g78
g59
NtRp1638
(dp1639
g62
(dp1640
sg71
g1625
sg64
(lp1641
g57
(g58
g59
NtRp1642
(dp1643
g62
(dp1644
g70
I4
ssg71
g1638
sg64
(lp1645
S'Rocket 1.2.4'
p1646
asbasbasbag57
(g73
g59
NtRp1647
(dp1648
g62
(dp1649
sg71
g1007
sg64
(lp1650
g57
(g78
g59
NtRp1651
(dp1652
g62
(dp1653
g82
g83
ssg71
g1647
sg64
(lp1654
S'web2py_crontype'
p1655
asbag57
(g78
g59
NtRp1656
(dp1657
g62
(dp1658
g89
g90
ssg71
g1647
sg64
(lp1659
S':'
asbag57
(g78
g59
NtRp1660
(dp1661
g62
(dp1662
sg71
g1647
sg64
(lp1663
g57
(g58
g59
NtRp1664
(dp1665
g62
(dp1666
g70
I4
ssg71
g1660
sg64
(lp1667
S'hard'
p1668
asbasbasbag57
(g73
g59
NtRp1669
(dp1670
g62
(dp1671
sg71
g1007
sg64
(lp1672
g57
(g78
g59
NtRp1673
(dp1674
g62
(dp1675
g82
g83
ssg71
g1669
sg64
(lp1676
S'web2py_path'
p1677
asbag57
(g78
g59
NtRp1678
(dp1679
g62
(dp1680
g89
g90
ssg71
g1669
sg64
(lp1681
S':'
asbag57
(g78
g59
NtRp1682
(dp1683
g62
(dp1684
sg71
g1669
sg64
(lp1685
g57
(g58
g59
NtRp1686
(dp1687
g62
(dp1688
g70
I4
ssg71
g1682
sg64
(lp1689
g1054
asbasbasbag57
(g73
g59
NtRp1690
(dp1691
g62
(dp1692
sg71
g1007
sg64
(lp1693
g57
(g78
g59
NtRp1694
(dp1695
g62
(dp1696
g82
g83
ssg71
g1690
sg64
(lp1697
S'web2py_version'
p1698
asbag57
(g78
g59
NtRp1699
(dp1700
g62
(dp1701
g89
g90
ssg71
g1690
sg64
(lp1702
S':'
asbag57
(g78
g59
NtRp1703
(dp1704
g62
(dp1705
sg71
g1690
sg64
(lp1706
g57
(g58
g59
NtRp1707
(dp1708
g62
(dp1709
g70
I4
ssg71
g1703
sg64
(lp1710
g57
(g66
g59
NtRp1711
(dp1712
g62
(dp1713
g70
I3
ssg71
Nsg64
(lp1714
g57
(g73
g59
NtRp1715
(dp1716
g62
(dp1717
sg71
g1711
sg64
(lp1718
g57
(g78
g59
NtRp1719
(dp1720
g62
(dp1721
sg71
g1715
sg64
(lp1722
g57
(g58
g59
NtRp1723
(dp1724
g62
(dp1725
g70
I3
ssg71
g1719
sg64
(lp1726
S'1'
asbasbasbag57
(g73
g59
NtRp1727
(dp1728
g62
(dp1729
sg71
g1711
sg64
(lp1730
g57
(g78
g59
NtRp1731
(dp1732
g62
(dp1733
sg71
g1727
sg64
(lp1734
g57
(g58
g59
NtRp1735
(dp1736
g62
(dp1737
g70
I3
ssg71
g1731
sg64
(lp1738
S'99'
p1739
asbasbasbag57
(g73
g59
NtRp1740
(dp1741
g62
(dp1742
sg71
g1711
sg64
(lp1743
g57
(g78
g59
NtRp1744
(dp1745
g62
(dp1746
sg71
g1740
sg64
(lp1747
g57
(g58
g59
NtRp1748
(dp1749
g62
(dp1750
g70
I3
ssg71
g1744
sg64
(lp1751
S'4'
asbasbasbag57
(g73
g59
NtRp1752
(dp1753
g62
(dp1754
sg71
g1711
sg64
(lp1755
g57
(g78
g59
NtRp1756
(dp1757
g62
(dp1758
sg71
g1752
sg64
(lp1759
g57
(g58
g59
NtRp1760
(dp1761
g62
(dp1762
g70
I3
ssg71
g1756
sg64
(lp1763
S'datetime.datetime(2011, 12, 14, 14, 46, 14)'
p1764
asbasbasbag57
(g73
g59
NtRp1765
(dp1766
g62
(dp1767
sg71
g1711
sg64
(lp1768
g57
(g78
g59
NtRp1769
(dp1770
g62
(dp1771
sg71
g1765
sg64
(lp1772
g57
(g58
g59
NtRp1773
(dp1774
g62
(dp1775
g70
I3
ssg71
g1769
sg64
(lp1776
S'stable'
p1777
asbasbasbasbasbasbasbag57
(g73
g59
NtRp1778
(dp1779
g62
(dp1780
sg71
g1007
sg64
(lp1781
g57
(g78
g59
NtRp1782
(dp1783
g62
(dp1784
g82
g83
ssg71
g1778
sg64
(lp1785
S'wsgi_errors'
p1786
asbag57
(g78
g59
NtRp1787
(dp1788
g62
(dp1789
g89
g90
ssg71
g1778
sg64
(lp1790
S':'
asbag57
(g78
g59
NtRp1791
(dp1792
g62
(dp1793
sg71
g1778
sg64
(lp1794
g57
(g58
g59
NtRp1795
(dp1796
g62
(dp1797
g70
I4
ssg71
g1791
sg64
(lp1798
S"<open file '<stderr>', mode 'w' at 0xb75470d0>"
p1799
asbasbasbag57
(g73
g59
NtRp1800
(dp1801
g62
(dp1802
sg71
g1007
sg64
(lp1803
g57
(g78
g59
NtRp1804
(dp1805
g62
(dp1806
g82
g83
ssg71
g1800
sg64
(lp1807
S'wsgi_file_wrapper'
p1808
asbag57
(g78
g59
NtRp1809
(dp1810
g62
(dp1811
g89
g90
ssg71
g1800
sg64
(lp1812
S':'
asbag57
(g78
g59
NtRp1813
(dp1814
g62
(dp1815
sg71
g1800
sg64
(lp1816
g57
(g58
g59
NtRp1817
(dp1818
g62
(dp1819
g70
I4
ssg71
g1813
sg64
(lp1820
S'<class wsgiref.util.FileWrapper at 0x8443a7c>'
p1821
asbasbasbag57
(g73
g59
NtRp1822
(dp1823
g62
(dp1824
sg71
g1007
sg64
(lp1825
g57
(g78
g59
NtRp1826
(dp1827
g62
(dp1828
g82
g83
ssg71
g1822
sg64
(lp1829
S'wsgi_input'
p1830
asbag57
(g78
g59
NtRp1831
(dp1832
g62
(dp1833
g89
g90
ssg71
g1822
sg64
(lp1834
S':'
asbag57
(g78
g59
NtRp1835
(dp1836
g62
(dp1837
sg71
g1822
sg64
(lp1838
g57
(g58
g59
NtRp1839
(dp1840
g62
(dp1841
g70
I4
ssg71
g1835
sg64
(lp1842
S'<socket._fileobject object at 0xabb6226c>'
p1843
asbasbasbag57
(g73
g59
NtRp1844
(dp1845
g62
(dp1846
sg71
g1007
sg64
(lp1847
g57
(g78
g59
NtRp1848
(dp1849
g62
(dp1850
g82
g83
ssg71
g1844
sg64
(lp1851
S'wsgi_multiprocess'
p1852
asbag57
(g78
g59
NtRp1853
(dp1854
g62
(dp1855
g89
g90
ssg71
g1844
sg64
(lp1856
S':'
asbag57
(g78
g59
NtRp1857
(dp1858
g62
(dp1859
sg71
g1844
sg64
(lp1860
g57
(g58
g59
NtRp1861
(dp1862
g62
(dp1863
g70
I4
ssg71
g1857
sg64
(lp1864
g100
asbasbasbag57
(g73
g59
NtRp1865
(dp1866
g62
(dp1867
sg71
g1007
sg64
(lp1868
g57
(g78
g59
NtRp1869
(dp1870
g62
(dp1871
g82
g83
ssg71
g1865
sg64
(lp1872
S'wsgi_multithread'
p1873
asbag57
(g78
g59
NtRp1874
(dp1875
g62
(dp1876
g89
g90
ssg71
g1865
sg64
(lp1877
S':'
asbag57
(g78
g59
NtRp1878
(dp1879
g62
(dp1880
sg71
g1865
sg64
(lp1881
g57
(g58
g59
NtRp1882
(dp1883
g62
(dp1884
g70
I4
ssg71
g1878
sg64
(lp1885
S'True'
p1886
asbasbasbag57
(g73
g59
NtRp1887
(dp1888
g62
(dp1889
sg71
g1007
sg64
(lp1890
g57
(g78
g59
NtRp1891
(dp1892
g62
(dp1893
g82
g83
ssg71
g1887
sg64
(lp1894
S'wsgi_run_once'
p1895
asbag57
(g78
g59
NtRp1896
(dp1897
g62
(dp1898
g89
g90
ssg71
g1887
sg64
(lp1899
S':'
asbag57
(g78
g59
NtRp1900
(dp1901
g62
(dp1902
sg71
g1887
sg64
(lp1903
g57
(g58
g59
NtRp1904
(dp1905
g62
(dp1906
g70
I4
ssg71
g1900
sg64
(lp1907
g100
asbasbasbag57
(g73
g59
NtRp1908
(dp1909
g62
(dp1910
sg71
g1007
sg64
(lp1911
g57
(g78
g59
NtRp1912
(dp1913
g62
(dp1914
g82
g83
ssg71
g1908
sg64
(lp1915
S'wsgi_url_scheme'
p1916
asbag57
(g78
g59
NtRp1917
(dp1918
g62
(dp1919
g89
g90
ssg71
g1908
sg64
(lp1920
S':'
asbag57
(g78
g59
NtRp1921
(dp1922
g62
(dp1923
sg71
g1908
sg64
(lp1924
g57
(g58
g59
NtRp1925
(dp1926
g62
(dp1927
g70
I4
ssg71
g1921
sg64
(lp1928
S'http'
p1929
asbasbasbag57
(g73
g59
NtRp1930
(dp1931
g62
(dp1932
sg71
g1007
sg64
(lp1933
g57
(g78
g59
NtRp1934
(dp1935
g62
(dp1936
g82
g83
ssg71
g1930
sg64
(lp1937
S'wsgi_version'
p1938
asbag57
(g78
g59
NtRp1939
(dp1940
g62
(dp1941
g89
g90
ssg71
g1930
sg64
(lp1942
S':'
asbag57
(g78
g59
NtRp1943
(dp1944
g62
(dp1945
sg71
g1930
sg64
(lp1946
g57
(g58
g59
NtRp1947
(dp1948
g62
(dp1949
g70
I4
ssg71
g1943
sg64
(lp1950
g57
(g66
g59
NtRp1951
(dp1952
g62
(dp1953
g70
I3
ssg71
Nsg64
(lp1954
g57
(g73
g59
NtRp1955
(dp1956
g62
(dp1957
sg71
g1951
sg64
(lp1958
g57
(g78
g59
NtRp1959
(dp1960
g62
(dp1961
sg71
g1955
sg64
(lp1962
g57
(g58
g59
NtRp1963
(dp1964
g62
(dp1965
g70
I3
ssg71
g1959
sg64
(lp1966
S'1'
asbasbasbag57
(g73
g59
NtRp1967
(dp1968
g62
(dp1969
sg71
g1951
sg64
(lp1970
g57
(g78
g59
NtRp1971
(dp1972
g62
(dp1973
sg71
g1967
sg64
(lp1974
g57
(g58
g59
NtRp1975
(dp1976
g62
(dp1977
g70
I3
ssg71
g1971
sg64
(lp1978
S'0'
asbasbasbasbasbasbasbasbasbasbasbag57
(g73
g59
NtRp1979
(dp1980
g62
(dp1981
sg71
g67
sg64
(lp1982
g57
(g78
g59
NtRp1983
(dp1984
g62
(dp1985
g82
g83
ssg71
g1979
sg64
(lp1986
S'extension'
p1987
asbag57
(g78
g59
NtRp1988
(dp1989
g62
(dp1990
g89
g90
ssg71
g1979
sg64
(lp1991
S':'
asbag57
(g78
g59
NtRp1992
(dp1993
g62
(dp1994
sg71
g1979
sg64
(lp1995
g57
(g58
g59
NtRp1996
(dp1997
g62
(dp1998
g70
I5
ssg71
g1992
sg64
(lp1999
S'html'
p2000
asbasbasbag57
(g73
g59
NtRp2001
(dp2002
g62
(dp2003
sg71
g67
sg64
(lp2004
g57
(g78
g59
NtRp2005
(dp2006
g62
(dp2007
g82
g83
ssg71
g2001
sg64
(lp2008
S'folder'
p2009
asbag57
(g78
g59
NtRp2010
(dp2011
g62
(dp2012
g89
g90
ssg71
g2001
sg64
(lp2013
S':'
asbag57
(g78
g59
NtRp2014
(dp2015
g62
(dp2016
sg71
g2001
sg64
(lp2017
g57
(g58
g59
NtRp2018
(dp2019
g62
(dp2020
g70
I5
ssg71
g2014
sg64
(lp2021
S'/home/brencam/web2py/applications/uodb/'
p2022
asbasbasbag57
(g73
g59
NtRp2023
(dp2024
g62
(dp2025
sg71
g67
sg64
(lp2026
g57
(g78
g59
NtRp2027
(dp2028
g62
(dp2029
g82
g83
ssg71
g2023
sg64
(lp2030
S'function'
p2031
asbag57
(g78
g59
NtRp2032
(dp2033
g62
(dp2034
g89
g90
ssg71
g2023
sg64
(lp2035
S':'
asbag57
(g78
g59
NtRp2036
(dp2037
g62
(dp2038
sg71
g2023
sg64
(lp2039
g57
(g58
g59
NtRp2040
(dp2041
g62
(dp2042
g70
I5
ssg71
g2036
sg64
(lp2043
S'edit_patient'
p2044
asbasbasbag57
(g73
g59
NtRp2045
(dp2046
g62
(dp2047
sg71
g67
sg64
(lp2048
g57
(g78
g59
NtRp2049
(dp2050
g62
(dp2051
g82
g83
ssg71
g2045
sg64
(lp2052
S'get_vars'
p2053
asbag57
(g78
g59
NtRp2054
(dp2055
g62
(dp2056
g89
g90
ssg71
g2045
sg64
(lp2057
S':'
asbag57
(g78
g59
NtRp2058
(dp2059
g62
(dp2060
sg71
g2045
sg64
(lp2061
g57
(g58
g59
NtRp2062
(dp2063
g62
(dp2064
g70
I5
ssg71
g2058
sg64
(lp2065
g57
(g66
g59
NtRp2066
(dp2067
g62
(dp2068
g70
I4
ssg71
Nsg64
(lp2069
g57
(g73
g59
NtRp2070
(dp2071
g62
(dp2072
sg71
g2066
sg64
(lp2073
g57
(g78
g59
NtRp2074
(dp2075
g62
(dp2076
g82
g83
ssg71
g2070
sg64
(lp2077
S'patient'
p2078
asbag57
(g78
g59
NtRp2079
(dp2080
g62
(dp2081
g89
g90
ssg71
g2070
sg64
(lp2082
S':'
asbag57
(g78
g59
NtRp2083
(dp2084
g62
(dp2085
sg71
g2070
sg64
(lp2086
g57
(g58
g59
NtRp2087
(dp2088
g62
(dp2089
g70
I4
ssg71
g2083
sg64
(lp2090
S'54'
p2091
asbasbasbasbasbasbasbag57
(g73
g59
NtRp2092
(dp2093
g62
(dp2094
sg71
g67
sg64
(lp2095
g57
(g78
g59
NtRp2096
(dp2097
g62
(dp2098
g82
g83
ssg71
g2092
sg64
(lp2099
S'global_settings'
p2100
asbag57
(g78
g59
NtRp2101
(dp2102
g62
(dp2103
g89
g90
ssg71
g2092
sg64
(lp2104
S':'
asbag57
(g78
g59
NtRp2105
(dp2106
g62
(dp2107
sg71
g2092
sg64
(lp2108
g57
(g58
g59
NtRp2109
(dp2110
g62
(dp2111
g70
I5
ssg71
g2105
sg64
(lp2112
g57
(g66
g59
NtRp2113
(dp2114
g62
(dp2115
g70
I4
ssg71
Nsg64
(lp2116
g57
(g73
g59
NtRp2117
(dp2118
g62
(dp2119
sg71
g2113
sg64
(lp2120
g57
(g78
g59
NtRp2121
(dp2122
g62
(dp2123
g82
g83
ssg71
g2117
sg64
(lp2124
g1019
asbag57
(g78
g59
NtRp2125
(dp2126
g62
(dp2127
g89
g90
ssg71
g2117
sg64
(lp2128
S':'
asbag57
(g78
g59
NtRp2129
(dp2130
g62
(dp2131
sg71
g2117
sg64
(lp2132
g57
(g58
g59
NtRp2133
(dp2134
g62
(dp2135
g70
I4
ssg71
g2129
sg64
(lp2136
S"set(['/home/brencam/web2py/applications/psp2py/', '/home/brencam/web2py/applications/admin/', '/home/brencam/web2py/applications/welcome/', '/home/brencam/web2py/applications/uodb/'])"
p2137
asbasbasbag57
(g73
g59
NtRp2138
(dp2139
g62
(dp2140
sg71
g2113
sg64
(lp2141
g57
(g78
g59
NtRp2142
(dp2143
g62
(dp2144
g82
g83
ssg71
g2138
sg64
(lp2145
g1041
asbag57
(g78
g59
NtRp2146
(dp2147
g62
(dp2148
g89
g90
ssg71
g2138
sg64
(lp2149
S':'
asbag57
(g78
g59
NtRp2150
(dp2151
g62
(dp2152
sg71
g2138
sg64
(lp2153
g57
(g58
g59
NtRp2154
(dp2155
g62
(dp2156
g70
I4
ssg71
g2150
sg64
(lp2157
g1054
asbasbasbag57
(g73
g59
NtRp2158
(dp2159
g62
(dp2160
sg71
g2113
sg64
(lp2161
g57
(g78
g59
NtRp2162
(dp2163
g62
(dp2164
g82
g83
ssg71
g2158
sg64
(lp2165
g1063
asbag57
(g78
g59
NtRp2166
(dp2167
g62
(dp2168
g89
g90
ssg71
g2158
sg64
(lp2169
S':'
asbag57
(g78
g59
NtRp2170
(dp2171
g62
(dp2172
sg71
g2158
sg64
(lp2173
g57
(g58
g59
NtRp2174
(dp2175
g62
(dp2176
g70
I4
ssg71
g2170
sg64
(lp2177
g57
(g66
g59
NtRp2178
(dp2179
g62
(dp2180
g70
I3
ssg71
Nsg64
(lp2181
sbasbasbasbag57
(g73
g59
NtRp2182
(dp2183
g62
(dp2184
sg71
g2113
sg64
(lp2185
g57
(g78
g59
NtRp2186
(dp2187
g62
(dp2188
g82
g83
ssg71
g2182
sg64
(lp2189
g1088
asbag57
(g78
g59
NtRp2190
(dp2191
g62
(dp2192
g89
g90
ssg71
g2182
sg64
(lp2193
S':'
asbag57
(g78
g59
NtRp2194
(dp2195
g62
(dp2196
sg71
g2182
sg64
(lp2197
g57
(g58
g59
NtRp2198
(dp2199
g62
(dp2200
g70
I4
ssg71
g2194
sg64
(lp2201
S"<Values at 0x899970c: {'verbose': False, 'ip': '127.0.0.1', 'shutdown_timeout': 5, 'taskbar': False, 'nocron': False, 'pid_filename': 'httpserver.pid', 'maxthreads': None, 'softcron': False, 'server_name': 'localhost.localdomain', 'bpython': False, 'nogui': False, 'port': 8000, 'extcron': False, 'debuglevel': 30, 'test': None, 'folder': '/home/brencam/web2py', 'config': '', 'import_models': False, 'winservice': '', 'shell': None, 'run': '', 'log_filename': 'httpserver.log', 'args': [''], 'socket_timeout': 1, 'ssl_ca_certificate': None, 'scheduler': None, 'profiler_filename': None, 'ssl_private_key': '', 'password': 'admin', 'request_queue_size': 5, 'ssl_certificate': '', 'cronjob': False, 'numthreads': None, 'quiet': False, 'interfaces': None, 'minthreads': None, 'timeout': 10, 'plain': False, 'nobanner': False}>"
p2202
asbasbasbag57
(g73
g59
NtRp2203
(dp2204
g62
(dp2205
sg71
g2113
sg64
(lp2206
g57
(g78
g59
NtRp2207
(dp2208
g62
(dp2209
g82
g83
ssg71
g2203
sg64
(lp2210
g1110
asbag57
(g78
g59
NtRp2211
(dp2212
g62
(dp2213
g89
g90
ssg71
g2203
sg64
(lp2214
S':'
asbag57
(g78
g59
NtRp2215
(dp2216
g62
(dp2217
sg71
g2203
sg64
(lp2218
g57
(g58
g59
NtRp2219
(dp2220
g62
(dp2221
g70
I4
ssg71
g2215
sg64
(lp2222
S'set([])'
p2223
asbasbasbag57
(g73
g59
NtRp2224
(dp2225
g62
(dp2226
sg71
g2113
sg64
(lp2227
g57
(g78
g59
NtRp2228
(dp2229
g62
(dp2230
g82
g83
ssg71
g2224
sg64
(lp2231
g1132
asbag57
(g78
g59
NtRp2232
(dp2233
g62
(dp2234
g89
g90
ssg71
g2224
sg64
(lp2235
S':'
asbag57
(g78
g59
NtRp2236
(dp2237
g62
(dp2238
sg71
g2224
sg64
(lp2239
g57
(g58
g59
NtRp2240
(dp2241
g62
(dp2242
g70
I4
ssg71
g2236
sg64
(lp2243
g100
asbasbasbag57
(g73
g59
NtRp2244
(dp2245
g62
(dp2246
sg71
g2113
sg64
(lp2247
g57
(g78
g59
NtRp2248
(dp2249
g62
(dp2250
g82
g83
ssg71
g2244
sg64
(lp2251
g1153
asbag57
(g78
g59
NtRp2252
(dp2253
g62
(dp2254
g89
g90
ssg71
g2244
sg64
(lp2255
S':'
asbag57
(g78
g59
NtRp2256
(dp2257
g62
(dp2258
sg71
g2244
sg64
(lp2259
g57
(g58
g59
NtRp2260
(dp2261
g62
(dp2262
g70
I4
ssg71
g2256
sg64
(lp2263
g1166
asbasbasbag57
(g73
g59
NtRp2264
(dp2265
g62
(dp2266
sg71
g2113
sg64
(lp2267
g57
(g78
g59
NtRp2268
(dp2269
g62
(dp2270
g82
g83
ssg71
g2264
sg64
(lp2271
g1395
asbag57
(g78
g59
NtRp2272
(dp2273
g62
(dp2274
g89
g90
ssg71
g2264
sg64
(lp2275
S':'
asbag57
(g78
g59
NtRp2276
(dp2277
g62
(dp2278
sg71
g2264
sg64
(lp2279
g57
(g58
g59
NtRp2280
(dp2281
g62
(dp2282
g70
I4
ssg71
g2276
sg64
(lp2283
g100
asbasbasbag57
(g73
g59
NtRp2284
(dp2285
g62
(dp2286
sg71
g2113
sg64
(lp2287
g57
(g78
g59
NtRp2288
(dp2289
g62
(dp2290
g82
g83
ssg71
g2284
sg64
(lp2291
g1416
asbag57
(g78
g59
NtRp2292
(dp2293
g62
(dp2294
g89
g90
ssg71
g2284
sg64
(lp2295
S':'
asbag57
(g78
g59
NtRp2296
(dp2297
g62
(dp2298
sg71
g2284
sg64
(lp2299
g57
(g58
g59
NtRp2300
(dp2301
g62
(dp2302
g70
I4
ssg71
g2296
sg64
(lp2303
g100
asbasbasbag57
(g73
g59
NtRp2304
(dp2305
g62
(dp2306
sg71
g2113
sg64
(lp2307
g57
(g78
g59
NtRp2308
(dp2309
g62
(dp2310
g82
g83
ssg71
g2304
sg64
(lp2311
g1655
asbag57
(g78
g59
NtRp2312
(dp2313
g62
(dp2314
g89
g90
ssg71
g2304
sg64
(lp2315
S':'
asbag57
(g78
g59
NtRp2316
(dp2317
g62
(dp2318
sg71
g2304
sg64
(lp2319
g57
(g58
g59
NtRp2320
(dp2321
g62
(dp2322
g70
I4
ssg71
g2316
sg64
(lp2323
g1668
asbasbasbag57
(g73
g59
NtRp2324
(dp2325
g62
(dp2326
sg71
g2113
sg64
(lp2327
g57
(g78
g59
NtRp2328
(dp2329
g62
(dp2330
g82
g83
ssg71
g2324
sg64
(lp2331
g1698
asbag57
(g78
g59
NtRp2332
(dp2333
g62
(dp2334
g89
g90
ssg71
g2324
sg64
(lp2335
S':'
asbag57
(g78
g59
NtRp2336
(dp2337
g62
(dp2338
sg71
g2324
sg64
(lp2339
g57
(g58
g59
NtRp2340
(dp2341
g62
(dp2342
g70
I4
ssg71
g2336
sg64
(lp2343
g57
(g66
g59
NtRp2344
(dp2345
g62
(dp2346
g70
I3
ssg71
Nsg64
(lp2347
g57
(g73
g59
NtRp2348
(dp2349
g62
(dp2350
sg71
g2344
sg64
(lp2351
g57
(g78
g59
NtRp2352
(dp2353
g62
(dp2354
sg71
g2348
sg64
(lp2355
g57
(g58
g59
NtRp2356
(dp2357
g62
(dp2358
g70
I3
ssg71
g2352
sg64
(lp2359
S'1'
asbasbasbag57
(g73
g59
NtRp2360
(dp2361
g62
(dp2362
sg71
g2344
sg64
(lp2363
g57
(g78
g59
NtRp2364
(dp2365
g62
(dp2366
sg71
g2360
sg64
(lp2367
g57
(g58
g59
NtRp2368
(dp2369
g62
(dp2370
g70
I3
ssg71
g2364
sg64
(lp2371
S'99'
p2372
asbasbasbag57
(g73
g59
NtRp2373
(dp2374
g62
(dp2375
sg71
g2344
sg64
(lp2376
g57
(g78
g59
NtRp2377
(dp2378
g62
(dp2379
sg71
g2373
sg64
(lp2380
g57
(g58
g59
NtRp2381
(dp2382
g62
(dp2383
g70
I3
ssg71
g2377
sg64
(lp2384
S'4'
asbasbasbag57
(g73
g59
NtRp2385
(dp2386
g62
(dp2387
sg71
g2344
sg64
(lp2388
g57
(g78
g59
NtRp2389
(dp2390
g62
(dp2391
sg71
g2385
sg64
(lp2392
g57
(g58
g59
NtRp2393
(dp2394
g62
(dp2395
g70
I3
ssg71
g2389
sg64
(lp2396
S'datetime.datetime(2011, 12, 14, 14, 46, 14)'
p2397
asbasbasbag57
(g73
g59
NtRp2398
(dp2399
g62
(dp2400
sg71
g2344
sg64
(lp2401
g57
(g78
g59
NtRp2402
(dp2403
g62
(dp2404
sg71
g2398
sg64
(lp2405
g57
(g58
g59
NtRp2406
(dp2407
g62
(dp2408
g70
I3
ssg71
g2402
sg64
(lp2409
g1777
asbasbasbasbasbasbasbasbasbasbasbag57
(g73
g59
NtRp2410
(dp2411
g62
(dp2412
sg71
g67
sg64
(lp2413
g57
(g78
g59
NtRp2414
(dp2415
g62
(dp2416
g82
g83
ssg71
g2410
sg64
(lp2417
S'is_https'
p2418
asbag57
(g78
g59
NtRp2419
(dp2420
g62
(dp2421
g89
g90
ssg71
g2410
sg64
(lp2422
S':'
asbag57
(g78
g59
NtRp2423
(dp2424
g62
(dp2425
sg71
g2410
sg64
(lp2426
g57
(g58
g59
NtRp2427
(dp2428
g62
(dp2429
g70
I5
ssg71
g2423
sg64
(lp2430
g100
asbasbasbag57
(g73
g59
NtRp2431
(dp2432
g62
(dp2433
sg71
g67
sg64
(lp2434
g57
(g78
g59
NtRp2435
(dp2436
g62
(dp2437
g82
g83
ssg71
g2431
sg64
(lp2438
S'is_local'
p2439
asbag57
(g78
g59
NtRp2440
(dp2441
g62
(dp2442
g89
g90
ssg71
g2431
sg64
(lp2443
S':'
asbag57
(g78
g59
NtRp2444
(dp2445
g62
(dp2446
sg71
g2431
sg64
(lp2447
g57
(g58
g59
NtRp2448
(dp2449
g62
(dp2450
g70
I5
ssg71
g2444
sg64
(lp2451
g1886
asbasbasbag57
(g73
g59
NtRp2452
(dp2453
g62
(dp2454
sg71
g67
sg64
(lp2455
g57
(g78
g59
NtRp2456
(dp2457
g62
(dp2458
g82
g83
ssg71
g2452
sg64
(lp2459
S'is_restful'
p2460
asbag57
(g78
g59
NtRp2461
(dp2462
g62
(dp2463
g89
g90
ssg71
g2452
sg64
(lp2464
S':'
asbag57
(g78
g59
NtRp2465
(dp2466
g62
(dp2467
sg71
g2452
sg64
(lp2468
g57
(g58
g59
NtRp2469
(dp2470
g62
(dp2471
g70
I5
ssg71
g2465
sg64
(lp2472
g100
asbasbasbag57
(g73
g59
NtRp2473
(dp2474
g62
(dp2475
sg71
g67
sg64
(lp2476
g57
(g78
g59
NtRp2477
(dp2478
g62
(dp2479
g82
g83
ssg71
g2473
sg64
(lp2480
S'now'
p2481
asbag57
(g78
g59
NtRp2482
(dp2483
g62
(dp2484
g89
g90
ssg71
g2473
sg64
(lp2485
S':'
asbag57
(g78
g59
NtRp2486
(dp2487
g62
(dp2488
sg71
g2473
sg64
(lp2489
g57
(g58
g59
NtRp2490
(dp2491
g62
(dp2492
g70
I5
ssg71
g2486
sg64
(lp2493
S'datetime.datetime(2012, 2, 15, 21, 43, 22, 971842)'
p2494
asbasbasbag57
(g73
g59
NtRp2495
(dp2496
g62
(dp2497
sg71
g67
sg64
(lp2498
g57
(g78
g59
NtRp2499
(dp2500
g62
(dp2501
g82
g83
ssg71
g2495
sg64
(lp2502
S'post_vars'
p2503
asbag57
(g78
g59
NtRp2504
(dp2505
g62
(dp2506
g89
g90
ssg71
g2495
sg64
(lp2507
S':'
asbag57
(g78
g59
NtRp2508
(dp2509
g62
(dp2510
sg71
g2495
sg64
(lp2511
g57
(g58
g59
NtRp2512
(dp2513
g62
(dp2514
g70
I5
ssg71
g2508
sg64
(lp2515
g57
(g66
g59
NtRp2516
(dp2517
g62
(dp2518
g70
I4
ssg71
Nsg64
(lp2519
sbasbasbasbag57
(g73
g59
NtRp2520
(dp2521
g62
(dp2522
sg71
g67
sg64
(lp2523
g57
(g78
g59
NtRp2524
(dp2525
g62
(dp2526
g82
g83
ssg71
g2520
sg64
(lp2527
S'url'
p2528
asbag57
(g78
g59
NtRp2529
(dp2530
g62
(dp2531
g89
g90
ssg71
g2520
sg64
(lp2532
S':'
asbag57
(g78
g59
NtRp2533
(dp2534
g62
(dp2535
sg71
g2520
sg64
(lp2536
g57
(g58
g59
NtRp2537
(dp2538
g62
(dp2539
g70
I5
ssg71
g2533
sg64
(lp2540
S'/uodb/ptcrud/edit_patient'
p2541
asbasbasbag57
(g73
g59
NtRp2542
(dp2543
g62
(dp2544
sg71
g67
sg64
(lp2545
g57
(g78
g59
NtRp2546
(dp2547
g62
(dp2548
g82
g83
ssg71
g2542
sg64
(lp2549
S'utcnow'
p2550
asbag57
(g78
g59
NtRp2551
(dp2552
g62
(dp2553
g89
g90
ssg71
g2542
sg64
(lp2554
S':'
asbag57
(g78
g59
NtRp2555
(dp2556
g62
(dp2557
sg71
g2542
sg64
(lp2558
g57
(g58
g59
NtRp2559
(dp2560
g62
(dp2561
g70
I5
ssg71
g2555
sg64
(lp2562
S'datetime.datetime(2012, 2, 16, 5, 43, 22, 971871)'
p2563
asbasbasbag57
(g73
g59
NtRp2564
(dp2565
g62
(dp2566
sg71
g67
sg64
(lp2567
g57
(g78
g59
NtRp2568
(dp2569
g62
(dp2570
g82
g83
ssg71
g2564
sg64
(lp2571
S'uuid'
p2572
asbag57
(g78
g59
NtRp2573
(dp2574
g62
(dp2575
g89
g90
ssg71
g2564
sg64
(lp2576
S':'
asbag57
(g78
g59
NtRp2577
(dp2578
g62
(dp2579
sg71
g2564
sg64
(lp2580
g57
(g58
g59
NtRp2581
(dp2582
g62
(dp2583
g70
I5
ssg71
g2577
sg64
(lp2584
S'uodb/127.0.0.1.2012-02-15.21-43-22.5b994550-7e43-46b3-a678-f0feb5ae90d4'
p2585
asbasbasbag57
(g73
g59
NtRp2586
(dp2587
g62
(dp2588
sg71
g67
sg64
(lp2589
g57
(g78
g59
NtRp2590
(dp2591
g62
(dp2592
g82
g83
ssg71
g2586
sg64
(lp2593
S'vars'
p2594
asbag57
(g78
g59
NtRp2595
(dp2596
g62
(dp2597
g89
g90
ssg71
g2586
sg64
(lp2598
S':'
asbag57
(g78
g59
NtRp2599
(dp2600
g62
(dp2601
sg71
g2586
sg64
(lp2602
g57
(g58
g59
NtRp2603
(dp2604
g62
(dp2605
g70
I5
ssg71
g2599
sg64
(lp2606
g57
(g66
g59
NtRp2607
(dp2608
g62
(dp2609
g70
I4
ssg71
Nsg64
(lp2610
g57
(g73
g59
NtRp2611
(dp2612
g62
(dp2613
sg71
g2607
sg64
(lp2614
g57
(g78
g59
NtRp2615
(dp2616
g62
(dp2617
g82
g83
ssg71
g2611
sg64
(lp2618
g2078
asbag57
(g78
g59
NtRp2619
(dp2620
g62
(dp2621
g89
g90
ssg71
g2611
sg64
(lp2622
S':'
asbag57
(g78
g59
NtRp2623
(dp2624
g62
(dp2625
sg71
g2611
sg64
(lp2626
g57
(g58
g59
NtRp2627
(dp2628
g62
(dp2629
g70
I4
ssg71
g2623
sg64
(lp2630
g2091
asbasbasbasbasbasbasbag57
(g73
g59
NtRp2631
(dp2632
g62
(dp2633
sg71
g67
sg64
(lp2634
g57
(g78
g59
NtRp2635
(dp2636
g62
(dp2637
g82
g83
ssg71
g2631
sg64
(lp2638
S'wsgi'
p2639
asbag57
(g78
g59
NtRp2640
(dp2641
g62
(dp2642
g89
g90
ssg71
g2631
sg64
(lp2643
S':'
asbag57
(g78
g59
NtRp2644
(dp2645
g62
(dp2646
sg71
g2631
sg64
(lp2647
g57
(g58
g59
NtRp2648
(dp2649
g62
(dp2650
g70
I5
ssg71
g2644
sg64
(lp2651
g57
(g66
g59
NtRp2652
(dp2653
g62
(dp2654
g70
I4
ssg71
Nsg64
(lp2655
g57
(g73
g59
NtRp2656
(dp2657
g62
(dp2658
sg71
g2652
sg64
(lp2659
g57
(g78
g59
NtRp2660
(dp2661
g62
(dp2662
g82
g83
ssg71
g2656
sg64
(lp2663
S'environ'
p2664
asbag57
(g78
g59
NtRp2665
(dp2666
g62
(dp2667
g89
g90
ssg71
g2656
sg64
(lp2668
S':'
asbag57
(g78
g59
NtRp2669
(dp2670
g62
(dp2671
sg71
g2656
sg64
(lp2672
g57
(g58
g59
NtRp2673
(dp2674
g62
(dp2675
g70
I4
ssg71
g2669
sg64
(lp2676
g57
(g66
g59
NtRp2677
(dp2678
g62
(dp2679
g70
I3
ssg71
Nsg64
(lp2680
g57
(g73
g59
NtRp2681
(dp2682
g62
(dp2683
sg71
g2677
sg64
(lp2684
g57
(g78
g59
NtRp2685
(dp2686
g62
(dp2687
g82
g83
ssg71
g2681
sg64
(lp2688
S'HTTP_ACCEPT'
p2689
asbag57
(g78
g59
NtRp2690
(dp2691
g62
(dp2692
g89
g90
ssg71
g2681
sg64
(lp2693
S':'
asbag57
(g78
g59
NtRp2694
(dp2695
g62
(dp2696
sg71
g2681
sg64
(lp2697
g57
(g58
g59
NtRp2698
(dp2699
g62
(dp2700
g70
I3
ssg71
g2694
sg64
(lp2701
g1188
asbasbasbag57
(g73
g59
NtRp2702
(dp2703
g62
(dp2704
sg71
g2677
sg64
(lp2705
g57
(g78
g59
NtRp2706
(dp2707
g62
(dp2708
g82
g83
ssg71
g2702
sg64
(lp2709
S'HTTP_ACCEPT_CHARSET'
p2710
asbag57
(g78
g59
NtRp2711
(dp2712
g62
(dp2713
g89
g90
ssg71
g2702
sg64
(lp2714
S':'
asbag57
(g78
g59
NtRp2715
(dp2716
g62
(dp2717
sg71
g2702
sg64
(lp2718
g57
(g58
g59
NtRp2719
(dp2720
g62
(dp2721
g70
I3
ssg71
g2715
sg64
(lp2722
g1210
asbasbasbag57
(g73
g59
NtRp2723
(dp2724
g62
(dp2725
sg71
g2677
sg64
(lp2726
g57
(g78
g59
NtRp2727
(dp2728
g62
(dp2729
g82
g83
ssg71
g2723
sg64
(lp2730
S'HTTP_ACCEPT_ENCODING'
p2731
asbag57
(g78
g59
NtRp2732
(dp2733
g62
(dp2734
g89
g90
ssg71
g2723
sg64
(lp2735
S':'
asbag57
(g78
g59
NtRp2736
(dp2737
g62
(dp2738
sg71
g2723
sg64
(lp2739
g57
(g58
g59
NtRp2740
(dp2741
g62
(dp2742
g70
I3
ssg71
g2736
sg64
(lp2743
g1232
asbasbasbag57
(g73
g59
NtRp2744
(dp2745
g62
(dp2746
sg71
g2677
sg64
(lp2747
g57
(g78
g59
NtRp2748
(dp2749
g62
(dp2750
g82
g83
ssg71
g2744
sg64
(lp2751
S'HTTP_ACCEPT_LANGUAGE'
p2752
asbag57
(g78
g59
NtRp2753
(dp2754
g62
(dp2755
g89
g90
ssg71
g2744
sg64
(lp2756
S':'
asbag57
(g78
g59
NtRp2757
(dp2758
g62
(dp2759
sg71
g2744
sg64
(lp2760
g57
(g58
g59
NtRp2761
(dp2762
g62
(dp2763
g70
I3
ssg71
g2757
sg64
(lp2764
g1254
asbasbasbag57
(g73
g59
NtRp2765
(dp2766
g62
(dp2767
sg71
g2677
sg64
(lp2768
g57
(g78
g59
NtRp2769
(dp2770
g62
(dp2771
g82
g83
ssg71
g2765
sg64
(lp2772
S'HTTP_CACHE_CONTROL'
p2773
asbag57
(g78
g59
NtRp2774
(dp2775
g62
(dp2776
g89
g90
ssg71
g2765
sg64
(lp2777
S':'
asbag57
(g78
g59
NtRp2778
(dp2779
g62
(dp2780
sg71
g2765
sg64
(lp2781
g57
(g58
g59
NtRp2782
(dp2783
g62
(dp2784
g70
I3
ssg71
g2778
sg64
(lp2785
g1276
asbasbasbag57
(g73
g59
NtRp2786
(dp2787
g62
(dp2788
sg71
g2677
sg64
(lp2789
g57
(g78
g59
NtRp2790
(dp2791
g62
(dp2792
g82
g83
ssg71
g2786
sg64
(lp2793
S'HTTP_CONNECTION'
p2794
asbag57
(g78
g59
NtRp2795
(dp2796
g62
(dp2797
g89
g90
ssg71
g2786
sg64
(lp2798
S':'
asbag57
(g78
g59
NtRp2799
(dp2800
g62
(dp2801
sg71
g2786
sg64
(lp2802
g57
(g58
g59
NtRp2803
(dp2804
g62
(dp2805
g70
I3
ssg71
g2799
sg64
(lp2806
g1298
asbasbasbag57
(g73
g59
NtRp2807
(dp2808
g62
(dp2809
sg71
g2677
sg64
(lp2810
g57
(g78
g59
NtRp2811
(dp2812
g62
(dp2813
g82
g83
ssg71
g2807
sg64
(lp2814
S'HTTP_COOKIE'
p2815
asbag57
(g78
g59
NtRp2816
(dp2817
g62
(dp2818
g89
g90
ssg71
g2807
sg64
(lp2819
S':'
asbag57
(g78
g59
NtRp2820
(dp2821
g62
(dp2822
sg71
g2807
sg64
(lp2823
g57
(g58
g59
NtRp2824
(dp2825
g62
(dp2826
g70
I3
ssg71
g2820
sg64
(lp2827
g1320
asbasbasbag57
(g73
g59
NtRp2828
(dp2829
g62
(dp2830
sg71
g2677
sg64
(lp2831
g57
(g78
g59
NtRp2832
(dp2833
g62
(dp2834
g82
g83
ssg71
g2828
sg64
(lp2835
S'HTTP_HOST'
p2836
asbag57
(g78
g59
NtRp2837
(dp2838
g62
(dp2839
g89
g90
ssg71
g2828
sg64
(lp2840
S':'
asbag57
(g78
g59
NtRp2841
(dp2842
g62
(dp2843
sg71
g2828
sg64
(lp2844
g57
(g58
g59
NtRp2845
(dp2846
g62
(dp2847
g70
I3
ssg71
g2841
sg64
(lp2848
g1342
asbasbasbag57
(g73
g59
NtRp2849
(dp2850
g62
(dp2851
sg71
g2677
sg64
(lp2852
g57
(g78
g59
NtRp2853
(dp2854
g62
(dp2855
g82
g83
ssg71
g2849
sg64
(lp2856
S'HTTP_REFERER'
p2857
asbag57
(g78
g59
NtRp2858
(dp2859
g62
(dp2860
g89
g90
ssg71
g2849
sg64
(lp2861
S':'
asbag57
(g78
g59
NtRp2862
(dp2863
g62
(dp2864
sg71
g2849
sg64
(lp2865
g57
(g58
g59
NtRp2866
(dp2867
g62
(dp2868
g70
I3
ssg71
g2862
sg64
(lp2869
g1364
asbasbasbag57
(g73
g59
NtRp2870
(dp2871
g62
(dp2872
sg71
g2677
sg64
(lp2873
g57
(g78
g59
NtRp2874
(dp2875
g62
(dp2876
g82
g83
ssg71
g2870
sg64
(lp2877
S'HTTP_USER_AGENT'
p2878
asbag57
(g78
g59
NtRp2879
(dp2880
g62
(dp2881
g89
g90
ssg71
g2870
sg64
(lp2882
S':'
asbag57
(g78
g59
NtRp2883
(dp2884
g62
(dp2885
sg71
g2870
sg64
(lp2886
g57
(g58
g59
NtRp2887
(dp2888
g62
(dp2889
g70
I3
ssg71
g2883
sg64
(lp2890
g1386
asbasbasbag57
(g73
g59
NtRp2891
(dp2892
g62
(dp2893
sg71
g2677
sg64
(lp2894
g57
(g78
g59
NtRp2895
(dp2896
g62
(dp2897
g82
g83
ssg71
g2891
sg64
(lp2898
S'PATH_INFO'
p2899
asbag57
(g78
g59
NtRp2900
(dp2901
g62
(dp2902
g89
g90
ssg71
g2891
sg64
(lp2903
S':'
asbag57
(g78
g59
NtRp2904
(dp2905
g62
(dp2906
sg71
g2891
sg64
(lp2907
g57
(g58
g59
NtRp2908
(dp2909
g62
(dp2910
g70
I3
ssg71
g2904
sg64
(lp2911
g1450
asbasbasbag57
(g73
g59
NtRp2912
(dp2913
g62
(dp2914
sg71
g2677
sg64
(lp2915
g57
(g78
g59
NtRp2916
(dp2917
g62
(dp2918
g82
g83
ssg71
g2912
sg64
(lp2919
S'QUERY_STRING'
p2920
asbag57
(g78
g59
NtRp2921
(dp2922
g62
(dp2923
g89
g90
ssg71
g2912
sg64
(lp2924
S':'
asbag57
(g78
g59
NtRp2925
(dp2926
g62
(dp2927
sg71
g2912
sg64
(lp2928
g57
(g58
g59
NtRp2929
(dp2930
g62
(dp2931
g70
I3
ssg71
g2925
sg64
(lp2932
g1472
asbasbasbag57
(g73
g59
NtRp2933
(dp2934
g62
(dp2935
sg71
g2677
sg64
(lp2936
g57
(g78
g59
NtRp2937
(dp2938
g62
(dp2939
g82
g83
ssg71
g2933
sg64
(lp2940
S'REMOTE_ADDR'
p2941
asbag57
(g78
g59
NtRp2942
(dp2943
g62
(dp2944
g89
g90
ssg71
g2933
sg64
(lp2945
S':'
asbag57
(g78
g59
NtRp2946
(dp2947
g62
(dp2948
sg71
g2933
sg64
(lp2949
g57
(g58
g59
NtRp2950
(dp2951
g62
(dp2952
g70
I3
ssg71
g2946
sg64
(lp2953
g190
asbasbasbag57
(g73
g59
NtRp2954
(dp2955
g62
(dp2956
sg71
g2677
sg64
(lp2957
g57
(g78
g59
NtRp2958
(dp2959
g62
(dp2960
g82
g83
ssg71
g2954
sg64
(lp2961
S'REMOTE_PORT'
p2962
asbag57
(g78
g59
NtRp2963
(dp2964
g62
(dp2965
g89
g90
ssg71
g2954
sg64
(lp2966
S':'
asbag57
(g78
g59
NtRp2967
(dp2968
g62
(dp2969
sg71
g2954
sg64
(lp2970
g57
(g58
g59
NtRp2971
(dp2972
g62
(dp2973
g70
I3
ssg71
g2967
sg64
(lp2974
g1515
asbasbasbag57
(g73
g59
NtRp2975
(dp2976
g62
(dp2977
sg71
g2677
sg64
(lp2978
g57
(g78
g59
NtRp2979
(dp2980
g62
(dp2981
g82
g83
ssg71
g2975
sg64
(lp2982
S'REQUEST_METHOD'
p2983
asbag57
(g78
g59
NtRp2984
(dp2985
g62
(dp2986
g89
g90
ssg71
g2975
sg64
(lp2987
S':'
asbag57
(g78
g59
NtRp2988
(dp2989
g62
(dp2990
sg71
g2975
sg64
(lp2991
g57
(g58
g59
NtRp2992
(dp2993
g62
(dp2994
g70
I3
ssg71
g2988
sg64
(lp2995
g1537
asbasbasbag57
(g73
g59
NtRp2996
(dp2997
g62
(dp2998
sg71
g2677
sg64
(lp2999
g57
(g78
g59
NtRp3000
(dp3001
g62
(dp3002
g82
g83
ssg71
g2996
sg64
(lp3003
S'SCRIPT_NAME'
p3004
asbag57
(g78
g59
NtRp3005
(dp3006
g62
(dp3007
g89
g90
ssg71
g2996
sg64
(lp3008
S':'
asbag57
(g78
g59
NtRp3009
(dp3010
g62
(dp3011
sg71
g2996
sg64
(lp3012
g57
(g58
g59
NtRp3013
(dp3014
g62
(dp3015
g70
I3
ssg71
g3009
sg64
(lp3016
S''
asbasbasbag57
(g73
g59
NtRp3017
(dp3018
g62
(dp3019
sg71
g2677
sg64
(lp3020
g57
(g78
g59
NtRp3021
(dp3022
g62
(dp3023
g82
g83
ssg71
g3017
sg64
(lp3024
S'SERVER_NAME'
p3025
asbag57
(g78
g59
NtRp3026
(dp3027
g62
(dp3028
g89
g90
ssg71
g3017
sg64
(lp3029
S':'
asbag57
(g78
g59
NtRp3030
(dp3031
g62
(dp3032
sg71
g3017
sg64
(lp3033
g57
(g58
g59
NtRp3034
(dp3035
g62
(dp3036
g70
I3
ssg71
g3030
sg64
(lp3037
g1580
asbasbasbag57
(g73
g59
NtRp3038
(dp3039
g62
(dp3040
sg71
g2677
sg64
(lp3041
g57
(g78
g59
NtRp3042
(dp3043
g62
(dp3044
g82
g83
ssg71
g3038
sg64
(lp3045
S'SERVER_PORT'
p3046
asbag57
(g78
g59
NtRp3047
(dp3048
g62
(dp3049
g89
g90
ssg71
g3038
sg64
(lp3050
S':'
asbag57
(g78
g59
NtRp3051
(dp3052
g62
(dp3053
sg71
g3038
sg64
(lp3054
g57
(g58
g59
NtRp3055
(dp3056
g62
(dp3057
g70
I3
ssg71
g3051
sg64
(lp3058
g1602
asbasbasbag57
(g73
g59
NtRp3059
(dp3060
g62
(dp3061
sg71
g2677
sg64
(lp3062
g57
(g78
g59
NtRp3063
(dp3064
g62
(dp3065
g82
g83
ssg71
g3059
sg64
(lp3066
S'SERVER_PROTOCOL'
p3067
asbag57
(g78
g59
NtRp3068
(dp3069
g62
(dp3070
g89
g90
ssg71
g3059
sg64
(lp3071
S':'
asbag57
(g78
g59
NtRp3072
(dp3073
g62
(dp3074
sg71
g3059
sg64
(lp3075
g57
(g58
g59
NtRp3076
(dp3077
g62
(dp3078
g70
I3
ssg71
g3072
sg64
(lp3079
g1624
asbasbasbag57
(g73
g59
NtRp3080
(dp3081
g62
(dp3082
sg71
g2677
sg64
(lp3083
g57
(g78
g59
NtRp3084
(dp3085
g62
(dp3086
g82
g83
ssg71
g3080
sg64
(lp3087
S'SERVER_SOFTWARE'
p3088
asbag57
(g78
g59
NtRp3089
(dp3090
g62
(dp3091
g89
g90
ssg71
g3080
sg64
(lp3092
S':'
asbag57
(g78
g59
NtRp3093
(dp3094
g62
(dp3095
sg71
g3080
sg64
(lp3096
g57
(g58
g59
NtRp3097
(dp3098
g62
(dp3099
g70
I3
ssg71
g3093
sg64
(lp3100
g1646
asbasbasbag57
(g73
g59
NtRp3101
(dp3102
g62
(dp3103
sg71
g2677
sg64
(lp3104
g57
(g78
g59
NtRp3105
(dp3106
g62
(dp3107
g82
g83
ssg71
g3101
sg64
(lp3108
S'wsgi.errors'
p3109
asbag57
(g78
g59
NtRp3110
(dp3111
g62
(dp3112
g89
g90
ssg71
g3101
sg64
(lp3113
S':'
asbag57
(g78
g59
NtRp3114
(dp3115
g62
(dp3116
sg71
g3101
sg64
(lp3117
g57
(g58
g59
NtRp3118
(dp3119
g62
(dp3120
g70
I3
ssg71
g3114
sg64
(lp3121
S"<open file '<stderr>', mode 'w' at 0xb75470d0>"
p3122
asbasbasbag57
(g73
g59
NtRp3123
(dp3124
g62
(dp3125
sg71
g2677
sg64
(lp3126
g57
(g78
g59
NtRp3127
(dp3128
g62
(dp3129
g82
g83
ssg71
g3123
sg64
(lp3130
S'wsgi.file_wrapper'
p3131
asbag57
(g78
g59
NtRp3132
(dp3133
g62
(dp3134
g89
g90
ssg71
g3123
sg64
(lp3135
S':'
asbag57
(g78
g59
NtRp3136
(dp3137
g62
(dp3138
sg71
g3123
sg64
(lp3139
g57
(g58
g59
NtRp3140
(dp3141
g62
(dp3142
g70
I3
ssg71
g3136
sg64
(lp3143
S'<class wsgiref.util.FileWrapper at 0x8443a7c>'
p3144
asbasbasbag57
(g73
g59
NtRp3145
(dp3146
g62
(dp3147
sg71
g2677
sg64
(lp3148
g57
(g78
g59
NtRp3149
(dp3150
g62
(dp3151
g82
g83
ssg71
g3145
sg64
(lp3152
S'wsgi.input'
p3153
asbag57
(g78
g59
NtRp3154
(dp3155
g62
(dp3156
g89
g90
ssg71
g3145
sg64
(lp3157
S':'
asbag57
(g78
g59
NtRp3158
(dp3159
g62
(dp3160
sg71
g3145
sg64
(lp3161
g57
(g58
g59
NtRp3162
(dp3163
g62
(dp3164
g70
I3
ssg71
g3158
sg64
(lp3165
S'<cStringIO.StringO object at 0xae13aee0>'
p3166
asbasbasbag57
(g73
g59
NtRp3167
(dp3168
g62
(dp3169
sg71
g2677
sg64
(lp3170
g57
(g78
g59
NtRp3171
(dp3172
g62
(dp3173
g82
g83
ssg71
g3167
sg64
(lp3174
S'wsgi.multiprocess'
p3175
asbag57
(g78
g59
NtRp3176
(dp3177
g62
(dp3178
g89
g90
ssg71
g3167
sg64
(lp3179
S':'
asbag57
(g78
g59
NtRp3180
(dp3181
g62
(dp3182
sg71
g3167
sg64
(lp3183
g57
(g58
g59
NtRp3184
(dp3185
g62
(dp3186
g70
I3
ssg71
g3180
sg64
(lp3187
g100
asbasbasbag57
(g73
g59
NtRp3188
(dp3189
g62
(dp3190
sg71
g2677
sg64
(lp3191
g57
(g78
g59
NtRp3192
(dp3193
g62
(dp3194
g82
g83
ssg71
g3188
sg64
(lp3195
S'wsgi.multithread'
p3196
asbag57
(g78
g59
NtRp3197
(dp3198
g62
(dp3199
g89
g90
ssg71
g3188
sg64
(lp3200
S':'
asbag57
(g78
g59
NtRp3201
(dp3202
g62
(dp3203
sg71
g3188
sg64
(lp3204
g57
(g58
g59
NtRp3205
(dp3206
g62
(dp3207
g70
I3
ssg71
g3201
sg64
(lp3208
g1886
asbasbasbag57
(g73
g59
NtRp3209
(dp3210
g62
(dp3211
sg71
g2677
sg64
(lp3212
g57
(g78
g59
NtRp3213
(dp3214
g62
(dp3215
g82
g83
ssg71
g3209
sg64
(lp3216
S'wsgi.run_once'
p3217
asbag57
(g78
g59
NtRp3218
(dp3219
g62
(dp3220
g89
g90
ssg71
g3209
sg64
(lp3221
S':'
asbag57
(g78
g59
NtRp3222
(dp3223
g62
(dp3224
sg71
g3209
sg64
(lp3225
g57
(g58
g59
NtRp3226
(dp3227
g62
(dp3228
g70
I3
ssg71
g3222
sg64
(lp3229
g100
asbasbasbag57
(g73
g59
NtRp3230
(dp3231
g62
(dp3232
sg71
g2677
sg64
(lp3233
g57
(g78
g59
NtRp3234
(dp3235
g62
(dp3236
g82
g83
ssg71
g3230
sg64
(lp3237
S'wsgi.url_scheme'
p3238
asbag57
(g78
g59
NtRp3239
(dp3240
g62
(dp3241
g89
g90
ssg71
g3230
sg64
(lp3242
S':'
asbag57
(g78
g59
NtRp3243
(dp3244
g62
(dp3245
sg71
g3230
sg64
(lp3246
g57
(g58
g59
NtRp3247
(dp3248
g62
(dp3249
g70
I3
ssg71
g3243
sg64
(lp3250
g1929
asbasbasbag57
(g73
g59
NtRp3251
(dp3252
g62
(dp3253
sg71
g2677
sg64
(lp3254
g57
(g78
g59
NtRp3255
(dp3256
g62
(dp3257
g82
g83
ssg71
g3251
sg64
(lp3258
S'wsgi.version'
p3259
asbag57
(g78
g59
NtRp3260
(dp3261
g62
(dp3262
g89
g90
ssg71
g3251
sg64
(lp3263
S':'
asbag57
(g78
g59
NtRp3264
(dp3265
g62
(dp3266
sg71
g3251
sg64
(lp3267
g57
(g58
g59
NtRp3268
(dp3269
g62
(dp3270
g70
I3
ssg71
g3264
sg64
(lp3271
S'1'
asbasbasbasbasbasbasbasbasbasbasbasbasbsS'frames'
p3272
(lp3273
(dp3274
S'file'
p3275
S'/home/brencam/web2py/gluon/restricted.py'
p3276
sS'dump'
p3277
(dp3278
S'environment'
p3279
S"{'A': <class 'gluon.html.A'>, 'Auth': <class 'gluon.tools.Auth'>, 'B': <class 'gluon.html.B'>, 'BEAUTIFY': <class 'gluon.html.BEAUTIFY'>, 'BODY': <class 'gluon.html.BODY'>, 'BR': <class 'gluon.html.BR'>, 'BUTTON': <class 'gluon.html.BUTTON'>, 'CAT': <class 'gluon.html.CAT'>, 'CENTER': <class 'gluon.html.CENTER'>, 'CLEANUP': <class 'gluon.validators.CLEANUP'>, ...}"
p3280
sS'ccode'
p3281
S'<code object <module> at 0xabb5f0f8, file "/home...ons/uodb/views/ptcrud/edit_patient.html", line 1>'
p3282
ssS'lnum'
p3283
I204
sS'lines'
p3284
(dp3285
I199
S'    try:'
p3286
sI200
S'        if type(code) == types.CodeType:'
p3287
sI201
S'            ccode = code'
p3288
sI202
S'        else:'
p3289
sI203
S'            ccode = compile2(code,layer)'
p3290
sI204
S'        exec ccode in environment'
p3291
sI205
S'    except HTTP:'
p3292
sI206
S'        raise'
p3293
sI207
S'    except RestrictedError:'
p3294
sI208
S'        # do not encapsulate (obfuscate) the original RestrictedError'
p3295
ssS'call'
p3296
S'(code=\'response.write(\\\'<!DOCTYPE html>\\\\n<html lang="\\\', ...    -->    \\\\n  </body>\\\\n</html>\\\\n\\\', escape=False)\', environment={\'A\': <class \'gluon.html.A\'>, \'Auth\': <class \'gluon.tools.Auth\'>, \'B\': <class \'gluon.html.B\'>, \'BEAUTIFY\': <class \'gluon.html.BEAUTIFY\'>, \'BODY\': <class \'gluon.html.BODY\'>, \'BR\': <class \'gluon.html.BR\'>, \'BUTTON\': <class \'gluon.html.BUTTON\'>, \'CAT\': <class \'gluon.html.CAT\'>, \'CENTER\': <class \'gluon.html.CENTER\'>, \'CLEANUP\': <class \'gluon.validators.CLEANUP\'>, ...}, layer=\'/home/brencam/web2py/applications/uodb/views/ptcrud/edit_patient.html\')'
p3297
sS'func'
p3298
S'restricted'
p3299
sa(dp3300
g3275
S'/home/brencam/web2py/applications/uodb/views/ptcrud/edit_patient.html'
p3301
sg3277
(dp3302
sg3283
I94
sg3284
(dp3303
I96
S'response.write(patient.mrn)'
p3304
sI97
S"response.write('</td>\\n    </tr>\\n\\\\</table> \\n\\n\\n', escape=False)"
p3305
sI98
S'response.write(form.custom.end)'
p3306
sI99
S"response.write('\\n', escape=False)"
p3307
sI100
S"response.write(' \\n      </div>\\n      <!-- content -->\\n\\n      ', escape=False)"
p3308
sI101
S'if right_sidebar_enabled:'
p3309
sI102
S'    response.write(\'\\n          <div id="right_sidebar" \', escape=False)'
p3310
sI103
S'    response.write(XML(right_sidebar_style))'
p3311
sI104
S'    response.write(\' >\\n            <div style="padding: 4px;">\\n              \', escape=False)'
p3312
sI85
S"response.write('\\n\\n', escape=False)"
p3313
sI86
S'response.write(form.custom.begin)'
p3314
sI87
S"response.write('\\n\\nMRN: <div>', escape=False)"
p3315
sI88
S'response.write(form.custom.widget.mrn)'
p3316
sI89
S"response.write('</div>\\nLName: <div>', escape=False)"
p3317
sI90
S'response.write(form.custom.widget.lname)'
p3318
sI91
S"response.write('</div>\\n\\n\\n<table>\\n    <th>DOB</th>\\n    <th>Action</th>        \\n    ', escape=False)"
p3319
sI92
S'# Write out recent patients (by dob)'
p3320
sI93
S"response.write('\\n    <tr>\\n        <th>Name</th>\\n        <td>', escape=False)"
p3321
sI94
S'response.write(patient.lname)'
p3322
sI95
S"response.write('</td>\\n        <th>MRN</th>\\n        <td>', escape=False)"
p3323
ssg3296
S'()'
p3324
sg3298
S'<module>'
p3325
sasS'pyver'
p3326
S'Python 2.6.6: /usr/bin/python'
p3327
sS'session'
p3328
g57
(g58
g59
NtRp3329
(dp3330
g62
(dp3331
sg64
(lp3332
g57
(g66
g59
NtRp3333
(dp3334
g62
(dp3335
g70
I5
ssg71
Nsg64
(lp3336
sbasbsS'etype'
p3337
S"<type 'exceptions.NameError'>"
p3338
sS'date'
p3339
S'Wed Feb 15 21:43:23 2012'
p3340
sS'response'
p3341
g57
(g58
g59
NtRp3342
(dp3343
g62
(dp3344
sg64
(lp3345
g57
(g66
g59
NtRp3346
(dp3347
g62
(dp3348
g70
I5
ssg71
Nsg64
(lp3349
g57
(g73
g59
NtRp3350
(dp3351
g62
(dp3352
sg71
g3346
sg64
(lp3353
g57
(g78
g59
NtRp3354
(dp3355
g62
(dp3356
g82
g83
ssg71
g3350
sg64
(lp3357
g155
asbag57
(g78
g59
NtRp3358
(dp3359
g62
(dp3360
g89
g90
ssg71
g3350
sg64
(lp3361
S':'
asbag57
(g78
g59
NtRp3362
(dp3363
g62
(dp3364
sg71
g3350
sg64
(lp3365
g57
(g58
g59
NtRp3366
(dp3367
g62
(dp3368
g70
I5
ssg71
g3362
sg64
(lp3369
S'<cStringIO.StringO object at 0xae13a260>'
p3370
asbasbasbag57
(g73
g59
NtRp3371
(dp3372
g62
(dp3373
sg71
g3346
sg64
(lp3374
g57
(g78
g59
NtRp3375
(dp3376
g62
(dp3377
g82
g83
ssg71
g3371
sg64
(lp3378
g221
asbag57
(g78
g59
NtRp3379
(dp3380
g62
(dp3381
g89
g90
ssg71
g3371
sg64
(lp3382
S':'
asbag57
(g78
g59
NtRp3383
(dp3384
g62
(dp3385
sg71
g3371
sg64
(lp3386
g57
(g58
g59
NtRp3387
(dp3388
g62
(dp3389
g70
I5
ssg71
g3383
sg64
(lp3390
g57
(g66
g59
NtRp3391
(dp3392
g62
(dp3393
g70
I4
ssg71
Nsg64
(lp3394
g57
(g73
g59
NtRp3395
(dp3396
g62
(dp3397
sg71
g3391
sg64
(lp3398
g57
(g78
g59
NtRp3399
(dp3400
g62
(dp3401
g82
g83
ssg71
g3395
sg64
(lp3402
S'session_id_uodb'
p3403
asbag57
(g78
g59
NtRp3404
(dp3405
g62
(dp3406
g89
g90
ssg71
g3395
sg64
(lp3407
S':'
asbag57
(g78
g59
NtRp3408
(dp3409
g62
(dp3410
sg71
g3395
sg64
(lp3411
g57
(g58
g59
NtRp3412
(dp3413
g62
(dp3414
g70
I4
ssg71
g3408
sg64
(lp3415
g57
(g66
g59
NtRp3416
(dp3417
g62
(dp3418
g70
I3
ssg71
Nsg64
(lp3419
g57
(g73
g59
NtRp3420
(dp3421
g62
(dp3422
sg71
g3416
sg64
(lp3423
g57
(g78
g59
NtRp3424
(dp3425
g62
(dp3426
g82
g83
ssg71
g3420
sg64
(lp3427
g271
asbag57
(g78
g59
NtRp3428
(dp3429
g62
(dp3430
g89
g90
ssg71
g3420
sg64
(lp3431
S':'
asbag57
(g78
g59
NtRp3432
(dp3433
g62
(dp3434
sg71
g3420
sg64
(lp3435
g57
(g58
g59
NtRp3436
(dp3437
g62
(dp3438
g70
I3
ssg71
g3432
sg64
(lp3439
S''
asbasbasbag57
(g73
g59
NtRp3440
(dp3441
g62
(dp3442
sg71
g3416
sg64
(lp3443
g57
(g78
g59
NtRp3444
(dp3445
g62
(dp3446
g82
g83
ssg71
g3440
sg64
(lp3447
g292
asbag57
(g78
g59
NtRp3448
(dp3449
g62
(dp3450
g89
g90
ssg71
g3440
sg64
(lp3451
S':'
asbag57
(g78
g59
NtRp3452
(dp3453
g62
(dp3454
sg71
g3440
sg64
(lp3455
g57
(g58
g59
NtRp3456
(dp3457
g62
(dp3458
g70
I3
ssg71
g3452
sg64
(lp3459
S''
asbasbasbag57
(g73
g59
NtRp3460
(dp3461
g62
(dp3462
sg71
g3416
sg64
(lp3463
g57
(g78
g59
NtRp3464
(dp3465
g62
(dp3466
g82
g83
ssg71
g3460
sg64
(lp3467
g313
asbag57
(g78
g59
NtRp3468
(dp3469
g62
(dp3470
g89
g90
ssg71
g3460
sg64
(lp3471
S':'
asbag57
(g78
g59
NtRp3472
(dp3473
g62
(dp3474
sg71
g3460
sg64
(lp3475
g57
(g58
g59
NtRp3476
(dp3477
g62
(dp3478
g70
I3
ssg71
g3472
sg64
(lp3479
S''
asbasbasbag57
(g73
g59
NtRp3480
(dp3481
g62
(dp3482
sg71
g3416
sg64
(lp3483
g57
(g78
g59
NtRp3484
(dp3485
g62
(dp3486
g82
g83
ssg71
g3480
sg64
(lp3487
g334
asbag57
(g78
g59
NtRp3488
(dp3489
g62
(dp3490
g89
g90
ssg71
g3480
sg64
(lp3491
S':'
asbag57
(g78
g59
NtRp3492
(dp3493
g62
(dp3494
sg71
g3480
sg64
(lp3495
g57
(g58
g59
NtRp3496
(dp3497
g62
(dp3498
g70
I3
ssg71
g3492
sg64
(lp3499
S''
asbasbasbag57
(g73
g59
NtRp3500
(dp3501
g62
(dp3502
sg71
g3416
sg64
(lp3503
g57
(g78
g59
NtRp3504
(dp3505
g62
(dp3506
g82
g83
ssg71
g3500
sg64
(lp3507
g355
asbag57
(g78
g59
NtRp3508
(dp3509
g62
(dp3510
g89
g90
ssg71
g3500
sg64
(lp3511
S':'
asbag57
(g78
g59
NtRp3512
(dp3513
g62
(dp3514
sg71
g3500
sg64
(lp3515
g57
(g58
g59
NtRp3516
(dp3517
g62
(dp3518
g70
I3
ssg71
g3512
sg64
(lp3519
S''
asbasbasbag57
(g73
g59
NtRp3520
(dp3521
g62
(dp3522
sg71
g3416
sg64
(lp3523
g57
(g78
g59
NtRp3524
(dp3525
g62
(dp3526
g82
g83
ssg71
g3520
sg64
(lp3527
g376
asbag57
(g78
g59
NtRp3528
(dp3529
g62
(dp3530
g89
g90
ssg71
g3520
sg64
(lp3531
S':'
asbag57
(g78
g59
NtRp3532
(dp3533
g62
(dp3534
sg71
g3520
sg64
(lp3535
g57
(g58
g59
NtRp3536
(dp3537
g62
(dp3538
g70
I3
ssg71
g3532
sg64
(lp3539
S'/'
asbasbasbag57
(g73
g59
NtRp3540
(dp3541
g62
(dp3542
sg71
g3416
sg64
(lp3543
g57
(g78
g59
NtRp3544
(dp3545
g62
(dp3546
g82
g83
ssg71
g3540
sg64
(lp3547
g397
asbag57
(g78
g59
NtRp3548
(dp3549
g62
(dp3550
g89
g90
ssg71
g3540
sg64
(lp3551
S':'
asbag57
(g78
g59
NtRp3552
(dp3553
g62
(dp3554
sg71
g3540
sg64
(lp3555
g57
(g58
g59
NtRp3556
(dp3557
g62
(dp3558
g70
I3
ssg71
g3552
sg64
(lp3559
S''
asbasbasbag57
(g73
g59
NtRp3560
(dp3561
g62
(dp3562
sg71
g3416
sg64
(lp3563
g57
(g78
g59
NtRp3564
(dp3565
g62
(dp3566
g82
g83
ssg71
g3560
sg64
(lp3567
g418
asbag57
(g78
g59
NtRp3568
(dp3569
g62
(dp3570
g89
g90
ssg71
g3560
sg64
(lp3571
S':'
asbag57
(g78
g59
NtRp3572
(dp3573
g62
(dp3574
sg71
g3560
sg64
(lp3575
g57
(g58
g59
NtRp3576
(dp3577
g62
(dp3578
g70
I3
ssg71
g3572
sg64
(lp3579
S''
asbasbasbasbasbasbasbasbasbasbasbag57
(g73
g59
NtRp3580
(dp3581
g62
(dp3582
sg71
g3346
sg64
(lp3583
g57
(g78
g59
NtRp3584
(dp3585
g62
(dp3586
g82
g83
ssg71
g3580
sg64
(lp3587
S'files'
p3588
asbag57
(g78
g59
NtRp3589
(dp3590
g62
(dp3591
g89
g90
ssg71
g3580
sg64
(lp3592
S':'
asbag57
(g78
g59
NtRp3593
(dp3594
g62
(dp3595
sg71
g3580
sg64
(lp3596
g57
(g58
g59
NtRp3597
(dp3598
g62
(dp3599
g70
I5
ssg71
g3593
sg64
(lp3600
g57
(g66
g59
NtRp3601
(dp3602
g62
(dp3603
g70
I4
ssg71
Nsg64
(lp3604
g57
(g73
g59
NtRp3605
(dp3606
g62
(dp3607
sg71
g3601
sg64
(lp3608
g57
(g78
g59
NtRp3609
(dp3610
g62
(dp3611
sg71
g3605
sg64
(lp3612
g57
(g58
g59
NtRp3613
(dp3614
g62
(dp3615
g70
I4
ssg71
g3609
sg64
(lp3616
S'/uodb/static/js/jquery.js'
p3617
asbasbasbag57
(g73
g59
NtRp3618
(dp3619
g62
(dp3620
sg71
g3601
sg64
(lp3621
g57
(g78
g59
NtRp3622
(dp3623
g62
(dp3624
sg71
g3618
sg64
(lp3625
g57
(g58
g59
NtRp3626
(dp3627
g62
(dp3628
g70
I4
ssg71
g3622
sg64
(lp3629
S'/uodb/static/css/calendar.css'
p3630
asbasbasbag57
(g73
g59
NtRp3631
(dp3632
g62
(dp3633
sg71
g3601
sg64
(lp3634
g57
(g78
g59
NtRp3635
(dp3636
g62
(dp3637
sg71
g3631
sg64
(lp3638
g57
(g58
g59
NtRp3639
(dp3640
g62
(dp3641
g70
I4
ssg71
g3635
sg64
(lp3642
S'/uodb/static/js/calendar.js'
p3643
asbasbasbag57
(g73
g59
NtRp3644
(dp3645
g62
(dp3646
sg71
g3601
sg64
(lp3647
g57
(g78
g59
NtRp3648
(dp3649
g62
(dp3650
sg71
g3644
sg64
(lp3651
g57
(g58
g59
NtRp3652
(dp3653
g62
(dp3654
g70
I4
ssg71
g3648
sg64
(lp3655
S'/uodb/static/js/web2py.js'
p3656
asbasbasbag57
(g73
g59
NtRp3657
(dp3658
g62
(dp3659
sg71
g3601
sg64
(lp3660
g57
(g78
g59
NtRp3661
(dp3662
g62
(dp3663
sg71
g3657
sg64
(lp3664
g57
(g58
g59
NtRp3665
(dp3666
g62
(dp3667
g70
I4
ssg71
g3661
sg64
(lp3668
S'/uodb/static/css/base.css'
p3669
asbasbasbag57
(g73
g59
NtRp3670
(dp3671
g62
(dp3672
sg71
g3601
sg64
(lp3673
g57
(g78
g59
NtRp3674
(dp3675
g62
(dp3676
sg71
g3670
sg64
(lp3677
g57
(g58
g59
NtRp3678
(dp3679
g62
(dp3680
g70
I4
ssg71
g3674
sg64
(lp3681
S'/uodb/static/css/superfish.css'
p3682
asbasbasbag57
(g73
g59
NtRp3683
(dp3684
g62
(dp3685
sg71
g3601
sg64
(lp3686
g57
(g78
g59
NtRp3687
(dp3688
g62
(dp3689
sg71
g3683
sg64
(lp3690
g57
(g58
g59
NtRp3691
(dp3692
g62
(dp3693
g70
I4
ssg71
g3687
sg64
(lp3694
S'/uodb/static/js/superfish.js'
p3695
asbasbasbasbasbasbasbag57
(g73
g59
NtRp3696
(dp3697
g62
(dp3698
sg71
g3346
sg64
(lp3699
g57
(g78
g59
NtRp3700
(dp3701
g62
(dp3702
g82
g83
ssg71
g3696
sg64
(lp3703
S'flash'
p3704
asbag57
(g78
g59
NtRp3705
(dp3706
g62
(dp3707
g89
g90
ssg71
g3696
sg64
(lp3708
S':'
asbag57
(g78
g59
NtRp3709
(dp3710
g62
(dp3711
sg71
g3696
sg64
(lp3712
g57
(g58
g59
NtRp3713
(dp3714
g62
(dp3715
g70
I5
ssg71
g3709
sg64
(lp3716
S''
asbasbasbag57
(g73
g59
NtRp3717
(dp3718
g62
(dp3719
sg71
g3346
sg64
(lp3720
g57
(g78
g59
NtRp3721
(dp3722
g62
(dp3723
g82
g83
ssg71
g3717
sg64
(lp3724
S'generic_patterns'
p3725
asbag57
(g78
g59
NtRp3726
(dp3727
g62
(dp3728
g89
g90
ssg71
g3717
sg64
(lp3729
S':'
asbag57
(g78
g59
NtRp3730
(dp3731
g62
(dp3732
sg71
g3717
sg64
(lp3733
g57
(g58
g59
NtRp3734
(dp3735
g62
(dp3736
g70
I5
ssg71
g3730
sg64
(lp3737
g57
(g66
g59
NtRp3738
(dp3739
g62
(dp3740
g70
I4
ssg71
Nsg64
(lp3741
g57
(g73
g59
NtRp3742
(dp3743
g62
(dp3744
sg71
g3738
sg64
(lp3745
g57
(g78
g59
NtRp3746
(dp3747
g62
(dp3748
sg71
g3742
sg64
(lp3749
g57
(g58
g59
NtRp3750
(dp3751
g62
(dp3752
g70
I4
ssg71
g3746
sg64
(lp3753
S'*'
asbasbasbasbasbasbasbag57
(g73
g59
NtRp3754
(dp3755
g62
(dp3756
sg71
g3346
sg64
(lp3757
g57
(g78
g59
NtRp3758
(dp3759
g62
(dp3760
g82
g83
ssg71
g3754
sg64
(lp3761
S'headers'
p3762
asbag57
(g78
g59
NtRp3763
(dp3764
g62
(dp3765
g89
g90
ssg71
g3754
sg64
(lp3766
S':'
asbag57
(g78
g59
NtRp3767
(dp3768
g62
(dp3769
sg71
g3754
sg64
(lp3770
g57
(g58
g59
NtRp3771
(dp3772
g62
(dp3773
g70
I5
ssg71
g3767
sg64
(lp3774
g57
(g66
g59
NtRp3775
(dp3776
g62
(dp3777
g70
I4
ssg71
Nsg64
(lp3778
g57
(g73
g59
NtRp3779
(dp3780
g62
(dp3781
sg71
g3775
sg64
(lp3782
g57
(g78
g59
NtRp3783
(dp3784
g62
(dp3785
g82
g83
ssg71
g3779
sg64
(lp3786
S'Cache-Control'
p3787
asbag57
(g78
g59
NtRp3788
(dp3789
g62
(dp3790
g89
g90
ssg71
g3779
sg64
(lp3791
S':'
asbag57
(g78
g59
NtRp3792
(dp3793
g62
(dp3794
sg71
g3779
sg64
(lp3795
g57
(g58
g59
NtRp3796
(dp3797
g62
(dp3798
g70
I4
ssg71
g3792
sg64
(lp3799
S'no-store, no-cache, must-revalidate, post-check=0, pre-check=0'
p3800
asbasbasbag57
(g73
g59
NtRp3801
(dp3802
g62
(dp3803
sg71
g3775
sg64
(lp3804
g57
(g78
g59
NtRp3805
(dp3806
g62
(dp3807
g82
g83
ssg71
g3801
sg64
(lp3808
S'Content-Type'
p3809
asbag57
(g78
g59
NtRp3810
(dp3811
g62
(dp3812
g89
g90
ssg71
g3801
sg64
(lp3813
S':'
asbag57
(g78
g59
NtRp3814
(dp3815
g62
(dp3816
sg71
g3801
sg64
(lp3817
g57
(g58
g59
NtRp3818
(dp3819
g62
(dp3820
g70
I4
ssg71
g3814
sg64
(lp3821
S'text/html; charset=utf-8'
p3822
asbasbasbag57
(g73
g59
NtRp3823
(dp3824
g62
(dp3825
sg71
g3775
sg64
(lp3826
g57
(g78
g59
NtRp3827
(dp3828
g62
(dp3829
g82
g83
ssg71
g3823
sg64
(lp3830
S'Expires'
p3831
asbag57
(g78
g59
NtRp3832
(dp3833
g62
(dp3834
g89
g90
ssg71
g3823
sg64
(lp3835
S':'
asbag57
(g78
g59
NtRp3836
(dp3837
g62
(dp3838
sg71
g3823
sg64
(lp3839
g57
(g58
g59
NtRp3840
(dp3841
g62
(dp3842
g70
I4
ssg71
g3836
sg64
(lp3843
S'Thu, 16 Feb 2012 05:43:22 GMT'
p3844
asbasbasbag57
(g73
g59
NtRp3845
(dp3846
g62
(dp3847
sg71
g3775
sg64
(lp3848
g57
(g78
g59
NtRp3849
(dp3850
g62
(dp3851
g82
g83
ssg71
g3845
sg64
(lp3852
S'Pragma'
p3853
asbag57
(g78
g59
NtRp3854
(dp3855
g62
(dp3856
g89
g90
ssg71
g3845
sg64
(lp3857
S':'
asbag57
(g78
g59
NtRp3858
(dp3859
g62
(dp3860
sg71
g3845
sg64
(lp3861
g57
(g58
g59
NtRp3862
(dp3863
g62
(dp3864
g70
I4
ssg71
g3858
sg64
(lp3865
S'no-cache'
p3866
asbasbasbag57
(g73
g59
NtRp3867
(dp3868
g62
(dp3869
sg71
g3775
sg64
(lp3870
g57
(g78
g59
NtRp3871
(dp3872
g62
(dp3873
g82
g83
ssg71
g3867
sg64
(lp3874
S'X-Powered-By'
p3875
asbag57
(g78
g59
NtRp3876
(dp3877
g62
(dp3878
g89
g90
ssg71
g3867
sg64
(lp3879
S':'
asbag57
(g78
g59
NtRp3880
(dp3881
g62
(dp3882
sg71
g3867
sg64
(lp3883
g57
(g58
g59
NtRp3884
(dp3885
g62
(dp3886
g70
I4
ssg71
g3880
sg64
(lp3887
S'web2py'
p3888
asbasbasbasbasbasbasbag57
(g73
g59
NtRp3889
(dp3890
g62
(dp3891
sg71
g3346
sg64
(lp3892
g57
(g78
g59
NtRp3893
(dp3894
g62
(dp3895
g82
g83
ssg71
g3889
sg64
(lp3896
S'menu'
p3897
asbag57
(g78
g59
NtRp3898
(dp3899
g62
(dp3900
g89
g90
ssg71
g3889
sg64
(lp3901
S':'
asbag57
(g78
g59
NtRp3902
(dp3903
g62
(dp3904
sg71
g3889
sg64
(lp3905
g57
(g58
g59
NtRp3906
(dp3907
g62
(dp3908
g70
I5
ssg71
g3902
sg64
(lp3909
g57
(g66
g59
NtRp3910
(dp3911
g62
(dp3912
g70
I4
ssg71
Nsg64
(lp3913
g57
(g73
g59
NtRp3914
(dp3915
g62
(dp3916
sg71
g3910
sg64
(lp3917
g57
(g78
g59
NtRp3918
(dp3919
g62
(dp3920
sg71
g3914
sg64
(lp3921
g57
(g58
g59
NtRp3922
(dp3923
g62
(dp3924
g70
I4
ssg71
g3918
sg64
(lp3925
g57
(g66
g59
NtRp3926
(dp3927
g62
(dp3928
g70
I3
ssg71
Nsg64
(lp3929
g57
(g73
g59
NtRp3930
(dp3931
g62
(dp3932
sg71
g3926
sg64
(lp3933
g57
(g78
g59
NtRp3934
(dp3935
g62
(dp3936
sg71
g3930
sg64
(lp3937
g57
(g58
g59
NtRp3938
(dp3939
g62
(dp3940
g70
I3
ssg71
g3934
sg64
(lp3941
cgluon.languages
lazyT_unpickle
p3942
(S's\x04\x00\x00\x00Home'
tRp3943
asbasbasbag57
(g73
g59
NtRp3944
(dp3945
g62
(dp3946
sg71
g3926
sg64
(lp3947
g57
(g78
g59
NtRp3948
(dp3949
g62
(dp3950
sg71
g3944
sg64
(lp3951
g57
(g58
g59
NtRp3952
(dp3953
g62
(dp3954
g70
I3
ssg71
g3948
sg64
(lp3955
g100
asbasbasbag57
(g73
g59
NtRp3956
(dp3957
g62
(dp3958
sg71
g3926
sg64
(lp3959
g57
(g78
g59
NtRp3960
(dp3961
g62
(dp3962
sg71
g3956
sg64
(lp3963
g57
(g58
g59
NtRp3964
(dp3965
g62
(dp3966
g70
I3
ssg71
g3960
sg64
(lp3967
S'/uodb/default/index'
p3968
asbasbasbag57
(g73
g59
NtRp3969
(dp3970
g62
(dp3971
sg71
g3926
sg64
(lp3972
g57
(g78
g59
NtRp3973
(dp3974
g62
(dp3975
sg71
g3969
sg64
(lp3976
g57
(g58
g59
NtRp3977
(dp3978
g62
(dp3979
g70
I3
ssg71
g3973
sg64
(lp3980
g57
(g66
g59
NtRp3981
(dp3982
g62
(dp3983
g70
I2
ssg71
Nsg64
(lp3984
sbasbasbasbasbasbasbasbag57
(g73
g59
NtRp3985
(dp3986
g62
(dp3987
sg71
g3910
sg64
(lp3988
g57
(g78
g59
NtRp3989
(dp3990
g62
(dp3991
sg71
g3985
sg64
(lp3992
g57
(g58
g59
NtRp3993
(dp3994
g62
(dp3995
g70
I4
ssg71
g3989
sg64
(lp3996
g57
(g66
g59
NtRp3997
(dp3998
g62
(dp3999
g70
I3
ssg71
Nsg64
(lp4000
g57
(g73
g59
NtRp4001
(dp4002
g62
(dp4003
sg71
g3997
sg64
(lp4004
g57
(g78
g59
NtRp4005
(dp4006
g62
(dp4007
sg71
g4001
sg64
(lp4008
g57
(g58
g59
NtRp4009
(dp4010
g62
(dp4011
g70
I3
ssg71
g4005
sg64
(lp4012
g3942
(S's\x08\x00\x00\x00Patients'
tRp4013
asbasbasbag57
(g73
g59
NtRp4014
(dp4015
g62
(dp4016
sg71
g3997
sg64
(lp4017
g57
(g78
g59
NtRp4018
(dp4019
g62
(dp4020
sg71
g4014
sg64
(lp4021
g57
(g58
g59
NtRp4022
(dp4023
g62
(dp4024
g70
I3
ssg71
g4018
sg64
(lp4025
g100
asbasbasbag57
(g73
g59
NtRp4026
(dp4027
g62
(dp4028
sg71
g3997
sg64
(lp4029
g57
(g78
g59
NtRp4030
(dp4031
g62
(dp4032
sg71
g4026
sg64
(lp4033
g57
(g58
g59
NtRp4034
(dp4035
g62
(dp4036
g70
I3
ssg71
g4030
sg64
(lp4037
S'/uodb/default/list_patient'
p4038
asbasbasbag57
(g73
g59
NtRp4039
(dp4040
g62
(dp4041
sg71
g3997
sg64
(lp4042
g57
(g78
g59
NtRp4043
(dp4044
g62
(dp4045
sg71
g4039
sg64
(lp4046
g57
(g58
g59
NtRp4047
(dp4048
g62
(dp4049
g70
I3
ssg71
g4043
sg64
(lp4050
g57
(g66
g59
NtRp4051
(dp4052
g62
(dp4053
g70
I2
ssg71
Nsg64
(lp4054
g57
(g73
g59
NtRp4055
(dp4056
g62
(dp4057
sg71
g4051
sg64
(lp4058
g57
(g78
g59
NtRp4059
(dp4060
g62
(dp4061
sg71
g4055
sg64
(lp4062
g57
(g58
g59
NtRp4063
(dp4064
g62
(dp4065
g70
I2
ssg71
g4059
sg64
(lp4066
g57
(g66
g59
NtRp4067
(dp4068
g62
(dp4069
g70
I1
ssg71
Nsg64
(lp4070
g57
(g73
g59
NtRp4071
(dp4072
g62
(dp4073
sg71
g4067
sg64
(lp4074
g57
(g78
g59
NtRp4075
(dp4076
g62
(dp4077
sg71
g4071
sg64
(lp4078
g57
(g58
g59
NtRp4079
(dp4080
g62
(dp4081
g70
I1
ssg71
g4075
sg64
(lp4082
g3942
(S's\x08\x00\x00\x00Register'
tRp4083
asbasbasbag57
(g73
g59
NtRp4084
(dp4085
g62
(dp4086
sg71
g4067
sg64
(lp4087
g57
(g78
g59
NtRp4088
(dp4089
g62
(dp4090
sg71
g4084
sg64
(lp4091
g57
(g58
g59
NtRp4092
(dp4093
g62
(dp4094
g70
I1
ssg71
g4088
sg64
(lp4095
I00
asbasbasbag57
(g73
g59
NtRp4096
(dp4097
g62
(dp4098
sg71
g4067
sg64
(lp4099
g57
(g78
g59
NtRp4100
(dp4101
g62
(dp4102
sg71
g4096
sg64
(lp4103
g57
(g58
g59
NtRp4104
(dp4105
g62
(dp4106
g70
I1
ssg71
g4100
sg64
(lp4107
S'/uodb/default/new'
p4108
asbasbasbag57
(g73
g59
NtRp4109
(dp4110
g62
(dp4111
sg71
g4067
sg64
(lp4112
g57
(g78
g59
NtRp4113
(dp4114
g62
(dp4115
sg71
g4109
sg64
(lp4116
g57
(g58
g59
NtRp4117
(dp4118
g62
(dp4119
g70
I1
ssg71
g4113
sg64
(lp4120
(lp4121
asbasbasbasbasbasbasbag57
(g73
g59
NtRp4122
(dp4123
g62
(dp4124
sg71
g4051
sg64
(lp4125
g57
(g78
g59
NtRp4126
(dp4127
g62
(dp4128
sg71
g4122
sg64
(lp4129
g57
(g58
g59
NtRp4130
(dp4131
g62
(dp4132
g70
I2
ssg71
g4126
sg64
(lp4133
g57
(g66
g59
NtRp4134
(dp4135
g62
(dp4136
g70
I1
ssg71
Nsg64
(lp4137
g57
(g73
g59
NtRp4138
(dp4139
g62
(dp4140
sg71
g4134
sg64
(lp4141
g57
(g78
g59
NtRp4142
(dp4143
g62
(dp4144
sg71
g4138
sg64
(lp4145
g57
(g58
g59
NtRp4146
(dp4147
g62
(dp4148
g70
I1
ssg71
g4142
sg64
(lp4149
g3942
(S's\x06\x00\x00\x00Search'
tRp4150
asbasbasbag57
(g73
g59
NtRp4151
(dp4152
g62
(dp4153
sg71
g4134
sg64
(lp4154
g57
(g78
g59
NtRp4155
(dp4156
g62
(dp4157
sg71
g4151
sg64
(lp4158
g57
(g58
g59
NtRp4159
(dp4160
g62
(dp4161
g70
I1
ssg71
g4155
sg64
(lp4162
I00
asbasbasbag57
(g73
g59
NtRp4163
(dp4164
g62
(dp4165
sg71
g4134
sg64
(lp4166
g57
(g78
g59
NtRp4167
(dp4168
g62
(dp4169
sg71
g4163
sg64
(lp4170
g57
(g58
g59
NtRp4171
(dp4172
g62
(dp4173
g70
I1
ssg71
g4167
sg64
(lp4174
S'/uodb/default/list_status'
p4175
asbasbasbag57
(g73
g59
NtRp4176
(dp4177
g62
(dp4178
sg71
g4134
sg64
(lp4179
g57
(g78
g59
NtRp4180
(dp4181
g62
(dp4182
sg71
g4176
sg64
(lp4183
g57
(g58
g59
NtRp4184
(dp4185
g62
(dp4186
g70
I1
ssg71
g4180
sg64
(lp4187
(lp4188
asbasbasbasbasbasbasbag57
(g73
g59
NtRp4189
(dp4190
g62
(dp4191
sg71
g4051
sg64
(lp4192
g57
(g78
g59
NtRp4193
(dp4194
g62
(dp4195
sg71
g4189
sg64
(lp4196
g57
(g58
g59
NtRp4197
(dp4198
g62
(dp4199
g70
I2
ssg71
g4193
sg64
(lp4200
g57
(g66
g59
NtRp4201
(dp4202
g62
(dp4203
g70
I1
ssg71
Nsg64
(lp4204
g57
(g73
g59
NtRp4205
(dp4206
g62
(dp4207
sg71
g4201
sg64
(lp4208
g57
(g78
g59
NtRp4209
(dp4210
g62
(dp4211
sg71
g4205
sg64
(lp4212
g57
(g58
g59
NtRp4213
(dp4214
g62
(dp4215
g70
I1
ssg71
g4209
sg64
(lp4216
g3942
(S's\x06\x00\x00\x00Status'
tRp4217
asbasbasbag57
(g73
g59
NtRp4218
(dp4219
g62
(dp4220
sg71
g4201
sg64
(lp4221
g57
(g78
g59
NtRp4222
(dp4223
g62
(dp4224
sg71
g4218
sg64
(lp4225
g57
(g58
g59
NtRp4226
(dp4227
g62
(dp4228
g70
I1
ssg71
g4222
sg64
(lp4229
I00
asbasbasbag57
(g73
g59
NtRp4230
(dp4231
g62
(dp4232
sg71
g4201
sg64
(lp4233
g57
(g78
g59
NtRp4234
(dp4235
g62
(dp4236
sg71
g4230
sg64
(lp4237
g57
(g58
g59
NtRp4238
(dp4239
g62
(dp4240
g70
I1
ssg71
g4234
sg64
(lp4241
S'/uodb/default/status'
p4242
asbasbasbag57
(g73
g59
NtRp4243
(dp4244
g62
(dp4245
sg71
g4201
sg64
(lp4246
g57
(g78
g59
NtRp4247
(dp4248
g62
(dp4249
sg71
g4243
sg64
(lp4250
g57
(g58
g59
NtRp4251
(dp4252
g62
(dp4253
g70
I1
ssg71
g4247
sg64
(lp4254
(lp4255
asbasbasbasbasbasbasbasbasbasbasbasbasbasbasbag57
(g73
g59
NtRp4256
(dp4257
g62
(dp4258
sg71
g3910
sg64
(lp4259
g57
(g78
g59
NtRp4260
(dp4261
g62
(dp4262
sg71
g4256
sg64
(lp4263
g57
(g58
g59
NtRp4264
(dp4265
g62
(dp4266
g70
I4
ssg71
g4260
sg64
(lp4267
g57
(g66
g59
NtRp4268
(dp4269
g62
(dp4270
g70
I3
ssg71
Nsg64
(lp4271
g57
(g73
g59
NtRp4272
(dp4273
g62
(dp4274
sg71
g4268
sg64
(lp4275
g57
(g78
g59
NtRp4276
(dp4277
g62
(dp4278
sg71
g4272
sg64
(lp4279
g57
(g58
g59
NtRp4280
(dp4281
g62
(dp4282
g70
I3
ssg71
g4276
sg64
(lp4283
g3942
(S's\x07\x00\x00\x00Reports'
tRp4284
asbasbasbag57
(g73
g59
NtRp4285
(dp4286
g62
(dp4287
sg71
g4268
sg64
(lp4288
g57
(g78
g59
NtRp4289
(dp4290
g62
(dp4291
sg71
g4285
sg64
(lp4292
g57
(g58
g59
NtRp4293
(dp4294
g62
(dp4295
g70
I3
ssg71
g4289
sg64
(lp4296
g100
asbasbasbag57
(g73
g59
NtRp4297
(dp4298
g62
(dp4299
sg71
g4268
sg64
(lp4300
g57
(g78
g59
NtRp4301
(dp4302
g62
(dp4303
sg71
g4297
sg64
(lp4304
g57
(g58
g59
NtRp4305
(dp4306
g62
(dp4307
g70
I3
ssg71
g4301
sg64
(lp4308
S'/uodb/default/index'
p4309
asbasbasbag57
(g73
g59
NtRp4310
(dp4311
g62
(dp4312
sg71
g4268
sg64
(lp4313
g57
(g78
g59
NtRp4314
(dp4315
g62
(dp4316
sg71
g4310
sg64
(lp4317
g57
(g58
g59
NtRp4318
(dp4319
g62
(dp4320
g70
I3
ssg71
g4314
sg64
(lp4321
g57
(g66
g59
NtRp4322
(dp4323
g62
(dp4324
g70
I2
ssg71
Nsg64
(lp4325
g57
(g73
g59
NtRp4326
(dp4327
g62
(dp4328
sg71
g4322
sg64
(lp4329
g57
(g78
g59
NtRp4330
(dp4331
g62
(dp4332
sg71
g4326
sg64
(lp4333
g57
(g58
g59
NtRp4334
(dp4335
g62
(dp4336
g70
I2
ssg71
g4330
sg64
(lp4337
g57
(g66
g59
NtRp4338
(dp4339
g62
(dp4340
g70
I1
ssg71
Nsg64
(lp4341
g57
(g73
g59
NtRp4342
(dp4343
g62
(dp4344
sg71
g4338
sg64
(lp4345
g57
(g78
g59
NtRp4346
(dp4347
g62
(dp4348
sg71
g4342
sg64
(lp4349
g57
(g58
g59
NtRp4350
(dp4351
g62
(dp4352
g70
I1
ssg71
g4346
sg64
(lp4353
g3942
(S's\t\x00\x00\x00Aggregate'
tRp4354
asbasbasbag57
(g73
g59
NtRp4355
(dp4356
g62
(dp4357
sg71
g4338
sg64
(lp4358
g57
(g78
g59
NtRp4359
(dp4360
g62
(dp4361
sg71
g4355
sg64
(lp4362
g57
(g58
g59
NtRp4363
(dp4364
g62
(dp4365
g70
I1
ssg71
g4359
sg64
(lp4366
I00
asbasbasbag57
(g73
g59
NtRp4367
(dp4368
g62
(dp4369
sg71
g4338
sg64
(lp4370
g57
(g78
g59
NtRp4371
(dp4372
g62
(dp4373
sg71
g4367
sg64
(lp4374
g57
(g58
g59
NtRp4375
(dp4376
g62
(dp4377
g70
I1
ssg71
g4371
sg64
(lp4378
S'/uodb/default/custom_form'
p4379
asbasbasbag57
(g73
g59
NtRp4380
(dp4381
g62
(dp4382
sg71
g4338
sg64
(lp4383
g57
(g78
g59
NtRp4384
(dp4385
g62
(dp4386
sg71
g4380
sg64
(lp4387
g57
(g58
g59
NtRp4388
(dp4389
g62
(dp4390
g70
I1
ssg71
g4384
sg64
(lp4391
(lp4392
asbasbasbasbasbasbasbag57
(g73
g59
NtRp4393
(dp4394
g62
(dp4395
sg71
g4322
sg64
(lp4396
g57
(g78
g59
NtRp4397
(dp4398
g62
(dp4399
sg71
g4393
sg64
(lp4400
g57
(g58
g59
NtRp4401
(dp4402
g62
(dp4403
g70
I2
ssg71
g4397
sg64
(lp4404
g57
(g66
g59
NtRp4405
(dp4406
g62
(dp4407
g70
I1
ssg71
Nsg64
(lp4408
g57
(g73
g59
NtRp4409
(dp4410
g62
(dp4411
sg71
g4405
sg64
(lp4412
g57
(g78
g59
NtRp4413
(dp4414
g62
(dp4415
sg71
g4409
sg64
(lp4416
g57
(g58
g59
NtRp4417
(dp4418
g62
(dp4419
g70
I1
ssg71
g4413
sg64
(lp4420
g3942
(S's\x0b\x00\x00\x00Ajax Status'
tRp4421
asbasbasbag57
(g73
g59
NtRp4422
(dp4423
g62
(dp4424
sg71
g4405
sg64
(lp4425
g57
(g78
g59
NtRp4426
(dp4427
g62
(dp4428
sg71
g4422
sg64
(lp4429
g57
(g58
g59
NtRp4430
(dp4431
g62
(dp4432
g70
I1
ssg71
g4426
sg64
(lp4433
I00
asbasbasbag57
(g73
g59
NtRp4434
(dp4435
g62
(dp4436
sg71
g4405
sg64
(lp4437
g57
(g78
g59
NtRp4438
(dp4439
g62
(dp4440
sg71
g4434
sg64
(lp4441
g57
(g58
g59
NtRp4442
(dp4443
g62
(dp4444
g70
I1
ssg71
g4438
sg64
(lp4445
S'/uodb/default/search'
p4446
asbasbasbag57
(g73
g59
NtRp4447
(dp4448
g62
(dp4449
sg71
g4405
sg64
(lp4450
g57
(g78
g59
NtRp4451
(dp4452
g62
(dp4453
sg71
g4447
sg64
(lp4454
g57
(g58
g59
NtRp4455
(dp4456
g62
(dp4457
g70
I1
ssg71
g4451
sg64
(lp4458
(lp4459
asbasbasbasbasbasbasbasbasbasbasbasbasbasbasbag57
(g73
g59
NtRp4460
(dp4461
g62
(dp4462
sg71
g3910
sg64
(lp4463
g57
(g78
g59
NtRp4464
(dp4465
g62
(dp4466
sg71
g4460
sg64
(lp4467
g57
(g58
g59
NtRp4468
(dp4469
g62
(dp4470
g70
I4
ssg71
g4464
sg64
(lp4471
g57
(g66
g59
NtRp4472
(dp4473
g62
(dp4474
g70
I3
ssg71
Nsg64
(lp4475
g57
(g73
g59
NtRp4476
(dp4477
g62
(dp4478
sg71
g4472
sg64
(lp4479
g57
(g78
g59
NtRp4480
(dp4481
g62
(dp4482
sg71
g4476
sg64
(lp4483
g57
(g58
g59
NtRp4484
(dp4485
g62
(dp4486
g70
I3
ssg71
g4480
sg64
(lp4487
g3942
(S's\x06\x00\x00\x00PtCrud'
tRp4488
asbasbasbag57
(g73
g59
NtRp4489
(dp4490
g62
(dp4491
sg71
g4472
sg64
(lp4492
g57
(g78
g59
NtRp4493
(dp4494
g62
(dp4495
sg71
g4489
sg64
(lp4496
g57
(g58
g59
NtRp4497
(dp4498
g62
(dp4499
g70
I3
ssg71
g4493
sg64
(lp4500
g100
asbasbasbag57
(g73
g59
NtRp4501
(dp4502
g62
(dp4503
sg71
g4472
sg64
(lp4504
g57
(g78
g59
NtRp4505
(dp4506
g62
(dp4507
sg71
g4501
sg64
(lp4508
g57
(g58
g59
NtRp4509
(dp4510
g62
(dp4511
g70
I3
ssg71
g4505
sg64
(lp4512
S'/uodb/ptcrud/index'
p4513
asbasbasbag57
(g73
g59
NtRp4514
(dp4515
g62
(dp4516
sg71
g4472
sg64
(lp4517
g57
(g78
g59
NtRp4518
(dp4519
g62
(dp4520
sg71
g4514
sg64
(lp4521
g57
(g58
g59
NtRp4522
(dp4523
g62
(dp4524
g70
I3
ssg71
g4518
sg64
(lp4525
g57
(g66
g59
NtRp4526
(dp4527
g62
(dp4528
g70
I2
ssg71
Nsg64
(lp4529
sbasbasbasbasbasbasbasbag57
(g73
g59
NtRp4530
(dp4531
g62
(dp4532
sg71
g3910
sg64
(lp4533
g57
(g78
g59
NtRp4534
(dp4535
g62
(dp4536
sg71
g4530
sg64
(lp4537
g57
(g58
g59
NtRp4538
(dp4539
g62
(dp4540
g70
I4
ssg71
g4534
sg64
(lp4541
g57
(g66
g59
NtRp4542
(dp4543
g62
(dp4544
g70
I3
ssg71
Nsg64
(lp4545
g57
(g73
g59
NtRp4546
(dp4547
g62
(dp4548
sg71
g4542
sg64
(lp4549
g57
(g78
g59
NtRp4550
(dp4551
g62
(dp4552
sg71
g4546
sg64
(lp4553
g57
(g58
g59
NtRp4554
(dp4555
g62
(dp4556
g70
I3
ssg71
g4550
sg64
(lp4557
g3942
(S's\x08\x00\x00\x00CrudTest'
tRp4558
asbasbasbag57
(g73
g59
NtRp4559
(dp4560
g62
(dp4561
sg71
g4542
sg64
(lp4562
g57
(g78
g59
NtRp4563
(dp4564
g62
(dp4565
sg71
g4559
sg64
(lp4566
g57
(g58
g59
NtRp4567
(dp4568
g62
(dp4569
g70
I3
ssg71
g4563
sg64
(lp4570
g100
asbasbasbag57
(g73
g59
NtRp4571
(dp4572
g62
(dp4573
sg71
g4542
sg64
(lp4574
g57
(g78
g59
NtRp4575
(dp4576
g62
(dp4577
sg71
g4571
sg64
(lp4578
g57
(g58
g59
NtRp4579
(dp4580
g62
(dp4581
g70
I3
ssg71
g4575
sg64
(lp4582
S'/uodb/default/crud_patient'
p4583
asbasbasbag57
(g73
g59
NtRp4584
(dp4585
g62
(dp4586
sg71
g4542
sg64
(lp4587
g57
(g78
g59
NtRp4588
(dp4589
g62
(dp4590
sg71
g4584
sg64
(lp4591
g57
(g58
g59
NtRp4592
(dp4593
g62
(dp4594
g70
I3
ssg71
g4588
sg64
(lp4595
g57
(g66
g59
NtRp4596
(dp4597
g62
(dp4598
g70
I2
ssg71
Nsg64
(lp4599
sbasbasbasbasbasbasbasbag57
(g73
g59
NtRp4600
(dp4601
g62
(dp4602
sg71
g3910
sg64
(lp4603
g57
(g78
g59
NtRp4604
(dp4605
g62
(dp4606
sg71
g4600
sg64
(lp4607
g57
(g58
g59
NtRp4608
(dp4609
g62
(dp4610
g70
I4
ssg71
g4604
sg64
(lp4611
g57
(g66
g59
NtRp4612
(dp4613
g62
(dp4614
g70
I3
ssg71
Nsg64
(lp4615
g57
(g73
g59
NtRp4616
(dp4617
g62
(dp4618
sg71
g4612
sg64
(lp4619
g57
(g78
g59
NtRp4620
(dp4621
g62
(dp4622
sg71
g4616
sg64
(lp4623
g57
(g58
g59
NtRp4624
(dp4625
g62
(dp4626
g70
I3
ssg71
g4620
sg64
(lp4627
g3942
(S's\n\x00\x00\x00CrudManage'
tRp4628
asbasbasbag57
(g73
g59
NtRp4629
(dp4630
g62
(dp4631
sg71
g4612
sg64
(lp4632
g57
(g78
g59
NtRp4633
(dp4634
g62
(dp4635
sg71
g4629
sg64
(lp4636
g57
(g58
g59
NtRp4637
(dp4638
g62
(dp4639
g70
I3
ssg71
g4633
sg64
(lp4640
g100
asbasbasbag57
(g73
g59
NtRp4641
(dp4642
g62
(dp4643
sg71
g4612
sg64
(lp4644
g57
(g78
g59
NtRp4645
(dp4646
g62
(dp4647
sg71
g4641
sg64
(lp4648
g57
(g58
g59
NtRp4649
(dp4650
g62
(dp4651
g70
I3
ssg71
g4645
sg64
(lp4652
S'/uodb/default/crud_manage'
p4653
asbasbasbag57
(g73
g59
NtRp4654
(dp4655
g62
(dp4656
sg71
g4612
sg64
(lp4657
g57
(g78
g59
NtRp4658
(dp4659
g62
(dp4660
sg71
g4654
sg64
(lp4661
g57
(g58
g59
NtRp4662
(dp4663
g62
(dp4664
g70
I3
ssg71
g4658
sg64
(lp4665
g57
(g66
g59
NtRp4666
(dp4667
g62
(dp4668
g70
I2
ssg71
Nsg64
(lp4669
sbasbasbasbasbasbasbasbasbasbasbasbag57
(g73
g59
NtRp4670
(dp4671
g62
(dp4672
sg71
g3346
sg64
(lp4673
g57
(g78
g59
NtRp4674
(dp4675
g62
(dp4676
g82
g83
ssg71
g4670
sg64
(lp4677
S'meta'
p4678
asbag57
(g78
g59
NtRp4679
(dp4680
g62
(dp4681
g89
g90
ssg71
g4670
sg64
(lp4682
S':'
asbag57
(g78
g59
NtRp4683
(dp4684
g62
(dp4685
sg71
g4670
sg64
(lp4686
g57
(g58
g59
NtRp4687
(dp4688
g62
(dp4689
g70
I5
ssg71
g4683
sg64
(lp4690
g57
(g66
g59
NtRp4691
(dp4692
g62
(dp4693
g70
I4
ssg71
Nsg64
(lp4694
g57
(g73
g59
NtRp4695
(dp4696
g62
(dp4697
sg71
g4691
sg64
(lp4698
g57
(g78
g59
NtRp4699
(dp4700
g62
(dp4701
g82
g83
ssg71
g4695
sg64
(lp4702
S'author'
p4703
asbag57
(g78
g59
NtRp4704
(dp4705
g62
(dp4706
g89
g90
ssg71
g4695
sg64
(lp4707
S':'
asbag57
(g78
g59
NtRp4708
(dp4709
g62
(dp4710
sg71
g4695
sg64
(lp4711
g57
(g58
g59
NtRp4712
(dp4713
g62
(dp4714
g70
I4
ssg71
g4708
sg64
(lp4715
S'BrendanC <patrickj@sonic.net>'
p4716
asbasbasbag57
(g73
g59
NtRp4717
(dp4718
g62
(dp4719
sg71
g4691
sg64
(lp4720
g57
(g78
g59
NtRp4721
(dp4722
g62
(dp4723
g82
g83
ssg71
g4717
sg64
(lp4724
S'description'
p4725
asbag57
(g78
g59
NtRp4726
(dp4727
g62
(dp4728
g89
g90
ssg71
g4717
sg64
(lp4729
S':'
asbag57
(g78
g59
NtRp4730
(dp4731
g62
(dp4732
sg71
g4717
sg64
(lp4733
g57
(g58
g59
NtRp4734
(dp4735
g62
(dp4736
g70
I4
ssg71
g4730
sg64
(lp4737
S'DB/CRUD Demo app built with Web2py framework'
p4738
asbasbasbag57
(g73
g59
NtRp4739
(dp4740
g62
(dp4741
sg71
g4691
sg64
(lp4742
g57
(g78
g59
NtRp4743
(dp4744
g62
(dp4745
g82
g83
ssg71
g4739
sg64
(lp4746
S'keywords'
p4747
asbag57
(g78
g59
NtRp4748
(dp4749
g62
(dp4750
g89
g90
ssg71
g4739
sg64
(lp4751
S':'
asbag57
(g78
g59
NtRp4752
(dp4753
g62
(dp4754
sg71
g4739
sg64
(lp4755
g57
(g58
g59
NtRp4756
(dp4757
g62
(dp4758
g70
I4
ssg71
g4752
sg64
(lp4759
S'CRUD web2py'
p4760
asbasbasbasbasbasbasbag57
(g73
g59
NtRp4761
(dp4762
g62
(dp4763
sg71
g3346
sg64
(lp4764
g57
(g78
g59
NtRp4765
(dp4766
g62
(dp4767
g82
g83
ssg71
g4761
sg64
(lp4768
S'postprocessing'
p4769
asbag57
(g78
g59
NtRp4770
(dp4771
g62
(dp4772
g89
g90
ssg71
g4761
sg64
(lp4773
S':'
asbag57
(g78
g59
NtRp4774
(dp4775
g62
(dp4776
sg71
g4761
sg64
(lp4777
g57
(g58
g59
NtRp4778
(dp4779
g62
(dp4780
g70
I5
ssg71
g4774
sg64
(lp4781
g57
(g66
g59
NtRp4782
(dp4783
g62
(dp4784
g70
I4
ssg71
Nsg64
(lp4785
sbasbasbasbag57
(g73
g59
NtRp4786
(dp4787
g62
(dp4788
sg71
g3346
sg64
(lp4789
g57
(g78
g59
NtRp4790
(dp4791
g62
(dp4792
g82
g83
ssg71
g4786
sg64
(lp4793
S'session_file'
p4794
asbag57
(g78
g59
NtRp4795
(dp4796
g62
(dp4797
g89
g90
ssg71
g4786
sg64
(lp4798
S':'
asbag57
(g78
g59
NtRp4799
(dp4800
g62
(dp4801
sg71
g4786
sg64
(lp4802
g57
(g58
g59
NtRp4803
(dp4804
g62
(dp4805
g70
I5
ssg71
g4799
sg64
(lp4806
S"<open file '/home/brencam/web2py/applications/uodb/sessions/127.0.0.1-94965217-1276-456d-98b3-42ebf908cc20', mode 'rb+' at 0xabb68650>"
p4807
asbasbasbag57
(g73
g59
NtRp4808
(dp4809
g62
(dp4810
sg71
g3346
sg64
(lp4811
g57
(g78
g59
NtRp4812
(dp4813
g62
(dp4814
g82
g83
ssg71
g4808
sg64
(lp4815
S'session_filename'
p4816
asbag57
(g78
g59
NtRp4817
(dp4818
g62
(dp4819
g89
g90
ssg71
g4808
sg64
(lp4820
S':'
asbag57
(g78
g59
NtRp4821
(dp4822
g62
(dp4823
sg71
g4808
sg64
(lp4824
g57
(g58
g59
NtRp4825
(dp4826
g62
(dp4827
g70
I5
ssg71
g4821
sg64
(lp4828
S'/home/brencam/web2py/applications/uodb/sessions/127.0.0.1-94965217-1276-456d-98b3-42ebf908cc20'
p4829
asbasbasbag57
(g73
g59
NtRp4830
(dp4831
g62
(dp4832
sg71
g3346
sg64
(lp4833
g57
(g78
g59
NtRp4834
(dp4835
g62
(dp4836
g82
g83
ssg71
g4830
sg64
(lp4837
S'session_id'
p4838
asbag57
(g78
g59
NtRp4839
(dp4840
g62
(dp4841
g89
g90
ssg71
g4830
sg64
(lp4842
S':'
asbag57
(g78
g59
NtRp4843
(dp4844
g62
(dp4845
sg71
g4830
sg64
(lp4846
g57
(g58
g59
NtRp4847
(dp4848
g62
(dp4849
g70
I5
ssg71
g4843
sg64
(lp4850
S'127.0.0.1-94965217-1276-456d-98b3-42ebf908cc20'
p4851
asbasbasbag57
(g73
g59
NtRp4852
(dp4853
g62
(dp4854
sg71
g3346
sg64
(lp4855
g57
(g78
g59
NtRp4856
(dp4857
g62
(dp4858
g82
g83
ssg71
g4852
sg64
(lp4859
S'session_id_name'
p4860
asbag57
(g78
g59
NtRp4861
(dp4862
g62
(dp4863
g89
g90
ssg71
g4852
sg64
(lp4864
S':'
asbag57
(g78
g59
NtRp4865
(dp4866
g62
(dp4867
sg71
g4852
sg64
(lp4868
g57
(g58
g59
NtRp4869
(dp4870
g62
(dp4871
g70
I5
ssg71
g4865
sg64
(lp4872
g3403
asbasbasbag57
(g73
g59
NtRp4873
(dp4874
g62
(dp4875
sg71
g3346
sg64
(lp4876
g57
(g78
g59
NtRp4877
(dp4878
g62
(dp4879
g82
g83
ssg71
g4873
sg64
(lp4880
S'session_locked'
p4881
asbag57
(g78
g59
NtRp4882
(dp4883
g62
(dp4884
g89
g90
ssg71
g4873
sg64
(lp4885
S':'
asbag57
(g78
g59
NtRp4886
(dp4887
g62
(dp4888
sg71
g4873
sg64
(lp4889
g57
(g58
g59
NtRp4890
(dp4891
g62
(dp4892
g70
I5
ssg71
g4886
sg64
(lp4893
g1886
asbasbasbag57
(g73
g59
NtRp4894
(dp4895
g62
(dp4896
sg71
g3346
sg64
(lp4897
g57
(g78
g59
NtRp4898
(dp4899
g62
(dp4900
g82
g83
ssg71
g4894
sg64
(lp4901
S'session_new'
p4902
asbag57
(g78
g59
NtRp4903
(dp4904
g62
(dp4905
g89
g90
ssg71
g4894
sg64
(lp4906
S':'
asbag57
(g78
g59
NtRp4907
(dp4908
g62
(dp4909
sg71
g4894
sg64
(lp4910
g57
(g58
g59
NtRp4911
(dp4912
g62
(dp4913
g70
I5
ssg71
g4907
sg64
(lp4914
g100
asbasbasbag57
(g73
g59
NtRp4915
(dp4916
g62
(dp4917
sg71
g3346
sg64
(lp4918
g57
(g78
g59
NtRp4919
(dp4920
g62
(dp4921
g82
g83
ssg71
g4915
sg64
(lp4922
S'status'
p4923
asbag57
(g78
g59
NtRp4924
(dp4925
g62
(dp4926
g89
g90
ssg71
g4915
sg64
(lp4927
S':'
asbag57
(g78
g59
NtRp4928
(dp4929
g62
(dp4930
sg71
g4915
sg64
(lp4931
g57
(g58
g59
NtRp4932
(dp4933
g62
(dp4934
g70
I5
ssg71
g4928
sg64
(lp4935
S'200'
p4936
asbasbasbag57
(g73
g59
NtRp4937
(dp4938
g62
(dp4939
sg71
g3346
sg64
(lp4940
g57
(g78
g59
NtRp4941
(dp4942
g62
(dp4943
g82
g83
ssg71
g4937
sg64
(lp4944
S'subtitle'
p4945
asbag57
(g78
g59
NtRp4946
(dp4947
g62
(dp4948
g89
g90
ssg71
g4937
sg64
(lp4949
S':'
asbag57
(g78
g59
NtRp4950
(dp4951
g62
(dp4952
sg71
g4937
sg64
(lp4953
g57
(g58
g59
NtRp4954
(dp4955
g62
(dp4956
g70
I5
ssg71
g4950
sg64
(lp4957
S'CRUD Demo App'
p4958
asbasbasbag57
(g73
g59
NtRp4959
(dp4960
g62
(dp4961
sg71
g3346
sg64
(lp4962
g57
(g78
g59
NtRp4963
(dp4964
g62
(dp4965
g82
g83
ssg71
g4959
sg64
(lp4966
S'title'
p4967
asbag57
(g78
g59
NtRp4968
(dp4969
g62
(dp4970
g89
g90
ssg71
g4959
sg64
(lp4971
S':'
asbag57
(g78
g59
NtRp4972
(dp4973
g62
(dp4974
sg71
g4959
sg64
(lp4975
g57
(g58
g59
NtRp4976
(dp4977
g62
(dp4978
g70
I5
ssg71
g4972
sg64
(lp4979
S'uodbdemo'
p4980
asbasbasbag57
(g73
g59
NtRp4981
(dp4982
g62
(dp4983
sg71
g3346
sg64
(lp4984
g57
(g78
g59
NtRp4985
(dp4986
g62
(dp4987
g82
g83
ssg71
g4981
sg64
(lp4988
g2572
asbag57
(g78
g59
NtRp4989
(dp4990
g62
(dp4991
g89
g90
ssg71
g4981
sg64
(lp4992
S':'
asbag57
(g78
g59
NtRp4993
(dp4994
g62
(dp4995
sg71
g4981
sg64
(lp4996
g57
(g58
g59
NtRp4997
(dp4998
g62
(dp4999
g70
I5
ssg71
g4993
sg64
(lp5000
g2585
asbasbasbag57
(g73
g59
NtRp5001
(dp5002
g62
(dp5003
sg71
g3346
sg64
(lp5004
g57
(g78
g59
NtRp5005
(dp5006
g62
(dp5007
g82
g83
ssg71
g5001
sg64
(lp5008
S'view'
p5009
asbag57
(g78
g59
NtRp5010
(dp5011
g62
(dp5012
g89
g90
ssg71
g5001
sg64
(lp5013
S':'
asbag57
(g78
g59
NtRp5014
(dp5015
g62
(dp5016
sg71
g5001
sg64
(lp5017
g57
(g58
g59
NtRp5018
(dp5019
g62
(dp5020
g70
I5
ssg71
g5014
sg64
(lp5021
S'ptcrud/edit_patient.html'
p5022
asbasbasbasbasbsS'locals'
p5023
(dp5024
S'Service'
p5025
S"<class 'gluon.tools.Service'>"
p5026
sS'OBJECT'
p5027
S"<class 'gluon.html.OBJECT'>"
p5028
sS'track_changes'
p5029
S'<function track_changes>'
p5030
sS'SQLDB'
p5031
S"<class 'gluon.dal.DAL'>"
p5032
sg3328
S'<Storage {\'_formkey[patient/None]\': \'97882163-45...: \'|;\\xbe\\xf0Vp\\xac"\\xa5\\xcb\\xb8d\\xc1\\xfe\\xf4?\'}>'
p5033
sS'LINK'
p5034
S"<class 'gluon.html.LINK'>"
p5035
sS'BR'
p5036
S"<class 'gluon.html.BR'>"
p5037
sS'local_import'
p5038
S'<function <lambda>>'
p5039
sS'OPTGROUP'
p5040
S"<class 'gluon.html.OPTGROUP'>"
p5041
sS'PRE'
p5042
S"<class 'gluon.html.PRE'>"
p5043
sS'IS_INT_IN_RANGE'
p5044
S"<class 'gluon.validators.IS_INT_IN_RANGE'>"
p5045
sS'left_sidebar_enabled'
p5046
g100
sS'IS_LOWER'
p5047
S"<class 'gluon.validators.IS_LOWER'>"
p5048
sS'IS_STRONG'
p5049
S"<class 'gluon.validators.IS_STRONG'>"
p5050
sS'datetime'
p5051
S"<module 'datetime' from '/usr/lib/python2.6/lib-dynload/datetime.so'>"
p5052
sS'cache'
p5053
S'<gluon.cache.Cache object>'
p5054
sS'IS_IN_DB'
p5055
S"<class 'gluon.validators.IS_IN_DB'>"
p5056
sS'TAG'
p5057
S'<gluon.html.__TAG__ object>'
p5058
sS'pretty'
p5059
S'<function pretty>'
p5060
sS'SQLField'
p5061
S"<class 'gluon.dal.Field'>"
p5062
sS'mail'
p5063
S'<gluon.tools.Mail object>'
p5064
sS'BODY'
p5065
S"<class 'gluon.html.BODY'>"
p5066
sS'IS_DATE_IN_RANGE'
p5067
S"<class 'gluon.validators.IS_DATE_IN_RANGE'>"
p5068
sS'TH'
p5069
S"<class 'gluon.html.TH'>"
p5070
sS'URL'
p5071
S'<function URL>'
p5072
sS'__file__'
p5073
S"'/home/brencam/web2py/applications/uodb/views/ptcrud/edit_patient.html'"
p5074
sS'db'
p5075
S"<DAL {'event': <Table {'create_date': <gluon.dal... '_id': <gluon.dal.Field object at 0xc93108c>}>}>"
p5076
sS'auth'
p5077
S'<gluon.tools.Auth object>'
p5078
sS'P'
S"<class 'gluon.html.P'>"
p5079
sS'TFOOT'
p5080
S"<class 'gluon.html.TFOOT'>"
p5081
sS'XHTML'
p5082
S"<class 'gluon.html.XHTML'>"
p5083
sg2481
S'datetime.datetime(2012, 2, 15, 21, 43, 23, 38739)'
p5084
sS'ON'
p5085
g1886
sS'OL'
p5086
S"<class 'gluon.html.OL'>"
p5087
sS'TEXTAREA'
p5088
S"<class 'gluon.html.TEXTAREA'>"
p5089
sS'settings'
p5090
S"<Storage {'layout_theme': 'Default', 'subtitle':...l_server': 'localhost', 'login_method': 'local'}>"
p5091
sS'MENU'
p5092
S"<class 'gluon.html.MENU'>"
p5093
sS'item'
p5094
S"<Row {'code_val': 'OTHER   '}>"
p5095
sS'IS_IMAGE'
p5096
S"<class 'gluon.validators.IS_IMAGE'>"
p5097
sS'sdir'
p5098
S"'/home/brencam/web2py'"
p5099
sS'LOAD'
p5100
S'<function LOAD>'
p5101
sS'CODE'
p5102
S"<class 'gluon.html.CODE'>"
p5103
sS'HTTP'
p5104
S"<class 'gluon.http.HTTP'>"
p5105
sS'HR'
p5106
S"<class 'gluon.html.HR'>"
p5107
sS'IS_DATETIME'
p5108
S"<class 'gluon.validators.IS_DATETIME'>"
p5109
sS'Storage'
p5110
S"<class 'gluon.storage.Storage'>"
p5111
sS'HEAD'
p5112
S"<class 'gluon.html.HEAD'>"
p5113
sS'LABEL'
p5114
S"<class 'gluon.html.LABEL'>"
p5115
sS'META'
p5116
S"<class 'gluon.html.META'>"
p5117
sS'plugins'
p5118
S'<gluon.tools.PluginManager object>'
p5119
sS'SELECT'
p5120
S"<class 'gluon.html.SELECT'>"
p5121
sS'use_janrain'
p5122
S'<function use_janrain>'
p5123
sS'CENTER'
p5124
S"<class 'gluon.html.CENTER'>"
p5125
sS'prettydate'
p5126
S'<function prettydate>'
p5127
sS'Crud'
p5128
S"<class 'gluon.tools.Crud'>"
p5129
sS'Auth'
p5130
S"<class 'gluon.tools.Auth'>"
p5131
sS'IS_EQUAL_TO'
p5132
S"<class 'gluon.validators.IS_EQUAL_TO'>"
p5133
sS'HTML'
p5134
S"<class 'gluon.html.HTML'>"
p5135
sS'SQLFORM'
p5136
S"<class 'gluon.sqlhtml.SQLFORM'>"
p5137
sS'plural'
p5138
S'<function plural>'
p5139
sS'EM'
p5140
S"<class 'gluon.html.EM'>"
p5141
sS'redirect'
p5142
S'<function redirect>'
p5143
sS'FIELDSET'
p5144
S"<class 'gluon.html.FIELDSET'>"
p5145
sS'__builtins__'
p5146
S"{'ArithmeticError': <type 'exceptions.ArithmeticError'>, 'AssertionError': <type 'exceptions.AssertionError'>, 'AttributeError': <type 'exceptions.AttributeError'>, 'BaseException': <type 'exceptions.BaseException'>, 'BufferError': <type 'exceptions.BufferError'>, 'BytesWarning': <type 'exceptions.BytesWarning'>, 'DeprecationWarning': <type 'exceptions.DeprecationWarning'>, 'EOFError': <type 'exceptions.EOFError'>, 'Ellipsis': Ellipsis, 'EnvironmentError': <type 'exceptions.EnvironmentError'>, ...}"
p5147
sS'embed64'
p5148
S'<function embed64>'
p5149
sS'IS_LIST_OF'
p5150
S"<class 'gluon.validators.IS_LIST_OF'>"
p5151
sS'INPUT'
p5152
S"<class 'gluon.html.INPUT'>"
p5153
sS'EMBED'
p5154
S"<class 'gluon.html.EMBED'>"
p5155
sS'FORM'
p5156
S"<class 'gluon.html.FORM'>"
p5157
sS'width_content'
p5158
S"'100%'"
p5159
sS'H2'
p5160
S"<class 'gluon.html.H2'>"
p5161
sS'H3'
p5162
S"<class 'gluon.html.H3'>"
p5163
sS'BUTTON'
p5164
S"<class 'gluon.html.BUTTON'>"
p5165
sS'H1'
p5166
S"<class 'gluon.html.H1'>"
p5167
sS'H6'
p5168
S"<class 'gluon.html.H6'>"
p5169
sS'H4'
p5170
S"<class 'gluon.html.H4'>"
p5171
sS'H5'
p5172
S"<class 'gluon.html.H5'>"
p5173
sS'UL'
p5174
S"<class 'gluon.html.UL'>"
p5175
sS'IS_UPPER'
p5176
S"<class 'gluon.validators.IS_UPPER'>"
p5177
sS'xmlescape'
p5178
S'<function xmlescape>'
p5179
sS'IS_TIME'
p5180
S"<class 'gluon.validators.IS_TIME'>"
p5181
sS'os'
p5182
S"<module 'os' from '/usr/lib/python2.6/os.pyc'>"
p5183
sS'OPTION'
p5184
S"<class 'gluon.html.OPTION'>"
p5185
sS'TITLE'
p5186
S"<class 'gluon.html.TITLE'>"
p5187
sS'CRYPT'
p5188
S"<class 'gluon.validators.CRYPT'>"
p5189
sS'IS_EMPTY_OR'
p5190
S"<class 'gluon.validators.IS_EMPTY_OR'>"
p5191
sS'MARKMIN'
p5192
S"<class 'gluon.html.MARKMIN'>"
p5193
sS'COL'
p5194
S"<class 'gluon.html.COL'>"
p5195
sS'service'
p5196
S'<gluon.tools.Service object>'
p5197
sS'SCRIPT'
p5198
S"<class 'gluon.html.SCRIPT'>"
p5199
sS'migrate'
p5200
g1886
sS'TABLE'
p5201
S"<class 'gluon.html.TABLE'>"
p5202
sS'get_status_dict'
p5203
S'<function get_status_dict>'
p5204
sS'IS_IPV4'
p5205
S"<class 'gluon.validators.IS_IPV4'>"
p5206
sS'IS_LENGTH'
p5207
S"<class 'gluon.validators.IS_LENGTH'>"
p5208
sS'XML'
p5209
S"<class 'gluon.html.XML'>"
p5210
sS'B'
S"<class 'gluon.html.B'>"
p5211
sS'IMG'
p5212
S"<class 'gluon.html.IMG'>"
p5213
sS'SQLTABLE'
p5214
S"<class 'gluon.sqlhtml.SQLTABLE'>"
p5215
sS'IS_MATCH'
p5216
S"<class 'gluon.validators.IS_MATCH'>"
p5217
sS'IS_ALPHANUMERIC'
p5218
S"<class 'gluon.validators.IS_ALPHANUMERIC'>"
p5219
sS'SPAN'
p5220
S"<class 'gluon.html.SPAN'>"
p5221
sS'IS_SLUG'
p5222
S"<class 'gluon.validators.IS_SLUG'>"
p5223
sS'CLEANUP'
p5224
S"<class 'gluon.validators.CLEANUP'>"
p5225
sS'ethlst'
p5226
S"['WHITE', 'AFAMER', 'LATINO', 'ASIAN', 'NTVAMER', 'OTHER   ']"
p5227
sS'IS_DATE'
p5228
S"<class 'gluon.validators.IS_DATE'>"
p5229
sS'IS_EMAIL'
p5230
S"<class 'gluon.validators.IS_EMAIL'>"
p5231
sS'IS_NOT_EMPTY'
p5232
S"<class 'gluon.validators.IS_NOT_EMPTY'>"
p5233
sS'IS_FLOAT_IN_RANGE'
p5234
S"<class 'gluon.validators.IS_FLOAT_IN_RANGE'>"
p5235
sS'BEAUTIFY'
p5236
S"<class 'gluon.html.BEAUTIFY'>"
p5237
sS'TBODY'
p5238
S"<class 'gluon.html.TBODY'>"
p5239
sS'CAT'
p5240
S"<class 'gluon.html.CAT'>"
p5241
sS'Field'
p5242
S"<class 'gluon.dal.Field'>"
p5243
sS'fdiff'
p5244
S'365'
p5245
sS'DIV'
p5246
S"<class 'gluon.html.DIV'>"
p5247
sS'LEGEND'
p5248
S"<class 'gluon.html.LEGEND'>"
p5249
sS'form'
p5250
S'<gluon.sqlhtml.SQLFORM object>'
p5251
sS'COLGROUP'
p5252
S"<class 'gluon.html.COLGROUP'>"
p5253
sS'DAL'
p5254
S"<class 'gluon.dal.DAL'>"
p5255
sS'TT'
p5256
S"<class 'gluon.html.TT'>"
p5257
sS'TR'
p5258
S"<class 'gluon.html.TR'>"
p5259
sS'LI'
p5260
S"<class 'gluon.html.LI'>"
p5261
sS'right_sidebar_enabled'
p5262
g100
sS'IFRAME'
p5263
S"<class 'gluon.html.IFRAME'>"
p5264
sS'TD'
p5265
S"<class 'gluon.html.TD'>"
p5266
sS'PluginManager'
p5267
S"<class 'gluon.tools.PluginManager'>"
p5268
sS'IS_URL'
p5269
S"<class 'gluon.validators.IS_URL'>"
p5270
sS'A'
S"<class 'gluon.html.A'>"
p5271
sS'STYLE'
p5272
S"<class 'gluon.html.STYLE'>"
p5273
sS'IS_DATETIME_IN_RANGE'
p5274
S"<class 'gluon.validators.IS_DATETIME_IN_RANGE'>"
p5275
sS'populate'
p5276
S'<function populate>'
p5277
sS'singular'
p5278
S'<function singular>'
p5279
sS'pdiff'
p5280
S'2500'
p5281
sS'crud'
p5282
S'<gluon.tools.Crud object>'
p5283
sS'right_sidebar_style'
p5284
S'\'style="display: none;"\''
p5285
sS'sys'
p5286
S"<module 'sys' (built-in)>"
p5287
sS'IS_NOT_IN_DB'
p5288
S"<class 'gluon.validators.IS_NOT_IN_DB'>"
p5289
sg3341
S"<Storage {'body': <cStringIO.StringO object at 0...0xabf4710c>, 'view': 'ptcrud/edit_patient.html'}>"
p5290
sS'THEAD'
p5291
S"<class 'gluon.html.THEAD'>"
p5292
sS'IS_NULL_OR'
p5293
S"<class 'gluon.validators.IS_EMPTY_OR'>"
p5294
sS'I'
S"<class 'gluon.html.I'>"
p5295
sS'left_sidebar_style'
p5296
S'\'style="display: none;"\''
p5297
sg56
S"<Storage {'body': <cStringIO.StringO object at 0...e {'patient': '54'}>, 'post_vars': <Storage {}>}>"
p5298
sS'IS_EXPR'
p5299
S"<class 'gluon.validators.IS_EXPR'>"
p5300
sS'T'
S'<gluon.languages.translator object>'
p5301
sS'IS_IN_SET'
p5302
S"<class 'gluon.validators.IS_IN_SET'>"
p5303
sS'IS_UPLOAD_FILENAME'
p5304
S"<class 'gluon.validators.IS_UPLOAD_FILENAME'>"
p5305
sS'style_content'
p5306
S'\'style="width: 100%"\''
p5307
sS'IS_DECIMAL_IN_RANGE'
p5308
S"<class 'gluon.validators.IS_DECIMAL_IN_RANGE'>"
p5309
sssS'traceback'
p5310
S'Traceback (most recent call last):\n  File "/home/brencam/web2py/gluon/restricted.py", line 204, in restricted\n    exec ccode in environment\n  File "/home/brencam/web2py/applications/uodb/views/ptcrud/edit_patient.html", line 94, in <module>\nNameError: name \'patient\' is not defined\n'
p5311
s.