(dp1
S'code_type'
p2
(dp3
S'type'
p4
S'string'
p5
sS'sortable'
p6
I2
sS'sql'
p7
S'CHAR(8)'
p8
ssS'code_sub_type'
p9
(dp10
g4
g5
sg6
I3
sg7
S'CHAR(8)'
p11
ssS'code_dscr'
p12
(dp13
g4
g5
sg6
I5
sg7
S'CHAR(80)'
p14
ssS'code_val'
p15
(dp16
g4
g5
sg6
I4
sg7
S'CHAR(8)'
p17
ssS'active'
p18
(dp19
g4
g5
sg6
I6
sg7
S'CHAR(1)'
p20
ssS'id'
p21
(dp22
g4
g21
sg6
I1
sg7
S'INTEGER PRIMARY KEY AUTOINCREMENT'
p23
ss.